ARM GAS  C:\Users\PC\AppData\Local\Temp\ccn0vriU.s 			page 1


   1              		.cpu cortex-m3
   2              		.arch armv7-m
   3              		.fpu softvfp
   4              		.eabi_attribute 20, 1
   5              		.eabi_attribute 21, 1
   6              		.eabi_attribute 23, 3
   7              		.eabi_attribute 24, 1
   8              		.eabi_attribute 25, 1
   9              		.eabi_attribute 26, 1
  10              		.eabi_attribute 30, 1
  11              		.eabi_attribute 34, 1
  12              		.eabi_attribute 18, 4
  13              		.file	"app_crsf.c"
  14              		.text
  15              	.Ltext0:
  16              		.cfi_sections	.debug_frame
  17              		.file 1 "App/Src/app_crsf.c"
  18              		.section	.text.AppCrsf_ClampChannel,"ax",%progbits
  19              		.align	1
  20              		.syntax unified
  21              		.thumb
  22              		.thumb_func
  24              	AppCrsf_ClampChannel:
  25              	.LVL0:
  26              	.LFB67:
   1:App/Src/app_crsf.c **** #include "app_crsf.h"
   2:App/Src/app_crsf.c **** 
   3:App/Src/app_crsf.c **** #define CRSF_ADDRESS_FLIGHT_CONTROLLER 0xC8U
   4:App/Src/app_crsf.c **** #define CRSF_FRAMETYPE_RC_CHANNELS_PACKED 0x16U
   5:App/Src/app_crsf.c **** #define CRSF_FRAME_SIZE_RC_CHANNELS    0x18U
   6:App/Src/app_crsf.c **** #define CRSF_PAYLOAD_SIZE_RC_CHANNELS  22U
   7:App/Src/app_crsf.c **** #define CRSF_CRC_POLY                  0xD5U
   8:App/Src/app_crsf.c **** 
   9:App/Src/app_crsf.c **** static uint8_t AppCrsf_Crc8(const uint8_t *data, uint8_t length);
  10:App/Src/app_crsf.c **** static void AppCrsf_PackChannels(const uint16_t channels[APP_CRSF_CHANNEL_COUNT], uint8_t packed[CR
  11:App/Src/app_crsf.c **** static uint16_t AppCrsf_ClampChannel(uint16_t value);
  12:App/Src/app_crsf.c **** static void AppCrsf_SendFrame(UART_HandleTypeDef *uart, const uint8_t *frame, uint8_t length);
  13:App/Src/app_crsf.c **** 
  14:App/Src/app_crsf.c **** void AppCrsf_SendRcChannels(UART_HandleTypeDef *uart, const uint16_t channels[APP_CRSF_CHANNEL_COUN
  15:App/Src/app_crsf.c **** {
  16:App/Src/app_crsf.c ****   uint8_t frame[26];
  17:App/Src/app_crsf.c ****   uint16_t clamped_channels[APP_CRSF_CHANNEL_COUNT];
  18:App/Src/app_crsf.c ****   uint8_t i;
  19:App/Src/app_crsf.c **** 
  20:App/Src/app_crsf.c ****   if (uart == NULL || channels == NULL)
  21:App/Src/app_crsf.c ****   {
  22:App/Src/app_crsf.c ****     return;
  23:App/Src/app_crsf.c ****   }
  24:App/Src/app_crsf.c **** 
  25:App/Src/app_crsf.c ****   // Clamp all channels to valid CRSF range
  26:App/Src/app_crsf.c ****   for (i = 0; i < APP_CRSF_CHANNEL_COUNT; i++)
  27:App/Src/app_crsf.c ****   {
  28:App/Src/app_crsf.c ****     clamped_channels[i] = AppCrsf_ClampChannel(channels[i]);
  29:App/Src/app_crsf.c ****   }
  30:App/Src/app_crsf.c **** 
  31:App/Src/app_crsf.c ****   // Build CRSF frame
  32:App/Src/app_crsf.c ****   frame[0] = CRSF_ADDRESS_FLIGHT_CONTROLLER;
ARM GAS  C:\Users\PC\AppData\Local\Temp\ccn0vriU.s 			page 2


  33:App/Src/app_crsf.c ****   frame[1] = CRSF_FRAME_SIZE_RC_CHANNELS;
  34:App/Src/app_crsf.c ****   frame[2] = CRSF_FRAMETYPE_RC_CHANNELS_PACKED;
  35:App/Src/app_crsf.c **** 
  36:App/Src/app_crsf.c ****   // Pack 16 channels into 22 bytes
  37:App/Src/app_crsf.c ****   AppCrsf_PackChannels(clamped_channels, &frame[3]);
  38:App/Src/app_crsf.c **** 
  39:App/Src/app_crsf.c ****   // Calculate CRC over type + payload
  40:App/Src/app_crsf.c ****   frame[25] = AppCrsf_Crc8(&frame[2], 23);
  41:App/Src/app_crsf.c **** 
  42:App/Src/app_crsf.c ****   AppCrsf_SendFrame(uart, frame, 26);
  43:App/Src/app_crsf.c **** }
  44:App/Src/app_crsf.c **** 
  45:App/Src/app_crsf.c **** void AppCrsf_SendFailsafe(UART_HandleTypeDef *uart)
  46:App/Src/app_crsf.c **** {
  47:App/Src/app_crsf.c ****   uint16_t failsafe_channels[APP_CRSF_CHANNEL_COUNT];
  48:App/Src/app_crsf.c ****   uint8_t i;
  49:App/Src/app_crsf.c **** 
  50:App/Src/app_crsf.c ****   // CH1 Roll = 992 (mid)
  51:App/Src/app_crsf.c ****   failsafe_channels[0] = APP_CRSF_CHANNEL_MID;
  52:App/Src/app_crsf.c ****   // CH2 Pitch = 992 (mid)
  53:App/Src/app_crsf.c ****   failsafe_channels[1] = APP_CRSF_CHANNEL_MID;
  54:App/Src/app_crsf.c ****   // CH3 Throttle = 172 (min)
  55:App/Src/app_crsf.c ****   failsafe_channels[2] = APP_CRSF_CHANNEL_MIN;
  56:App/Src/app_crsf.c ****   // CH4 Yaw = 992 (mid)
  57:App/Src/app_crsf.c ****   failsafe_channels[3] = APP_CRSF_CHANNEL_MID;
  58:App/Src/app_crsf.c ****   // CH5 Arm = 172 (disarm)
  59:App/Src/app_crsf.c ****   failsafe_channels[4] = APP_CRSF_CHANNEL_MIN;
  60:App/Src/app_crsf.c ****   // CH6-16 = 992 (mid)
  61:App/Src/app_crsf.c ****   for (i = 5; i < APP_CRSF_CHANNEL_COUNT; i++)
  62:App/Src/app_crsf.c ****   {
  63:App/Src/app_crsf.c ****     failsafe_channels[i] = APP_CRSF_CHANNEL_MID;
  64:App/Src/app_crsf.c ****   }
  65:App/Src/app_crsf.c **** 
  66:App/Src/app_crsf.c ****   AppCrsf_SendRcChannels(uart, failsafe_channels);
  67:App/Src/app_crsf.c **** }
  68:App/Src/app_crsf.c **** 
  69:App/Src/app_crsf.c **** static uint16_t AppCrsf_ClampChannel(uint16_t value)
  70:App/Src/app_crsf.c **** {
  27              		.loc 1 70 1 view -0
  28              		.cfi_startproc
  29              		@ args = 0, pretend = 0, frame = 0
  30              		@ frame_needed = 0, uses_anonymous_args = 0
  31              		@ link register save eliminated.
  71:App/Src/app_crsf.c ****   if (value < APP_CRSF_CHANNEL_MIN)
  32              		.loc 1 71 3 view .LVU1
  33              		.loc 1 71 6 is_stmt 0 view .LVU2
  34 0000 AB28     		cmp	r0, #171
  35 0002 04D9     		bls	.L3
  72:App/Src/app_crsf.c ****   {
  73:App/Src/app_crsf.c ****     return APP_CRSF_CHANNEL_MIN;
  74:App/Src/app_crsf.c ****   }
  75:App/Src/app_crsf.c ****   if (value > APP_CRSF_CHANNEL_MAX)
  36              		.loc 1 75 3 is_stmt 1 view .LVU3
  37              		.loc 1 75 6 is_stmt 0 view .LVU4
  38 0004 40F21373 		movw	r3, #1811
  39 0008 9842     		cmp	r0, r3
  40 000a 02D8     		bhi	.L4
ARM GAS  C:\Users\PC\AppData\Local\Temp\ccn0vriU.s 			page 3


  41 000c 7047     		bx	lr
  42              	.L3:
  73:App/Src/app_crsf.c ****   }
  43              		.loc 1 73 12 view .LVU5
  44 000e AC20     		movs	r0, #172
  45              	.LVL1:
  73:App/Src/app_crsf.c ****   }
  46              		.loc 1 73 12 view .LVU6
  47 0010 7047     		bx	lr
  48              	.LVL2:
  49              	.L4:
  76:App/Src/app_crsf.c ****   {
  77:App/Src/app_crsf.c ****     return APP_CRSF_CHANNEL_MAX;
  50              		.loc 1 77 12 view .LVU7
  51 0012 40F21370 		movw	r0, #1811
  52              	.LVL3:
  78:App/Src/app_crsf.c ****   }
  79:App/Src/app_crsf.c ****   return value;
  80:App/Src/app_crsf.c **** }
  53              		.loc 1 80 1 view .LVU8
  54 0016 7047     		bx	lr
  55              		.cfi_endproc
  56              	.LFE67:
  58              		.section	.text.AppCrsf_PackChannels,"ax",%progbits
  59              		.align	1
  60              		.syntax unified
  61              		.thumb
  62              		.thumb_func
  64              	AppCrsf_PackChannels:
  65              	.LVL4:
  66              	.LFB68:
  81:App/Src/app_crsf.c **** 
  82:App/Src/app_crsf.c **** static void AppCrsf_PackChannels(const uint16_t channels[APP_CRSF_CHANNEL_COUNT], uint8_t packed[CR
  83:App/Src/app_crsf.c **** {
  67              		.loc 1 83 1 is_stmt 1 view -0
  68              		.cfi_startproc
  69              		@ args = 0, pretend = 0, frame = 0
  70              		@ frame_needed = 0, uses_anonymous_args = 0
  71              		@ link register save eliminated.
  84:App/Src/app_crsf.c ****   // CRSF uses 11-bit per channel, packed into bytes
  85:App/Src/app_crsf.c ****   // 16 channels * 11 bits = 176 bits = 22 bytes
  86:App/Src/app_crsf.c **** 
  87:App/Src/app_crsf.c ****   packed[0]  = (uint8_t)(channels[0] & 0x07FF);
  72              		.loc 1 87 3 view .LVU10
  73              		.loc 1 87 16 is_stmt 0 view .LVU11
  74 0000 0378     		ldrb	r3, [r0]	@ zero_extendqisi2
  75              		.loc 1 87 14 view .LVU12
  76 0002 0B70     		strb	r3, [r1]
  88:App/Src/app_crsf.c ****   packed[1]  = (uint8_t)((channels[0] & 0x07FF) >> 8 | (channels[1] & 0x07FF) << 3);
  77              		.loc 1 88 3 is_stmt 1 view .LVU13
  78              		.loc 1 88 35 is_stmt 0 view .LVU14
  79 0004 0388     		ldrh	r3, [r0]
  80              		.loc 1 88 65 view .LVU15
  81 0006 4288     		ldrh	r2, [r0, #2]
  82              		.loc 1 88 54 view .LVU16
  83 0008 C3F30223 		ubfx	r3, r3, #8, #3
  84 000c 43EAC203 		orr	r3, r3, r2, lsl #3
ARM GAS  C:\Users\PC\AppData\Local\Temp\ccn0vriU.s 			page 4


  85              		.loc 1 88 14 view .LVU17
  86 0010 4B70     		strb	r3, [r1, #1]
  89:App/Src/app_crsf.c ****   packed[2]  = (uint8_t)((channels[1] & 0x07FF) >> 5 | (channels[2] & 0x07FF) << 6);
  87              		.loc 1 89 3 is_stmt 1 view .LVU18
  88              		.loc 1 89 35 is_stmt 0 view .LVU19
  89 0012 4388     		ldrh	r3, [r0, #2]
  90              		.loc 1 89 65 view .LVU20
  91 0014 8288     		ldrh	r2, [r0, #4]
  92              		.loc 1 89 54 view .LVU21
  93 0016 C3F34513 		ubfx	r3, r3, #5, #6
  94 001a 43EA8213 		orr	r3, r3, r2, lsl #6
  95              		.loc 1 89 14 view .LVU22
  96 001e 8B70     		strb	r3, [r1, #2]
  90:App/Src/app_crsf.c ****   packed[3]  = (uint8_t)((channels[2] & 0x07FF) >> 2);
  97              		.loc 1 90 3 is_stmt 1 view .LVU23
  98              		.loc 1 90 35 is_stmt 0 view .LVU24
  99 0020 8388     		ldrh	r3, [r0, #4]
 100              		.loc 1 90 16 view .LVU25
 101 0022 C3F38703 		ubfx	r3, r3, #2, #8
 102              		.loc 1 90 14 view .LVU26
 103 0026 CB70     		strb	r3, [r1, #3]
  91:App/Src/app_crsf.c ****   packed[4]  = (uint8_t)((channels[2] & 0x07FF) >> 10 | (channels[3] & 0x07FF) << 1);
 104              		.loc 1 91 3 is_stmt 1 view .LVU27
 105              		.loc 1 91 35 is_stmt 0 view .LVU28
 106 0028 8388     		ldrh	r3, [r0, #4]
 107              		.loc 1 91 66 view .LVU29
 108 002a C288     		ldrh	r2, [r0, #6]
 109              		.loc 1 91 55 view .LVU30
 110 002c C3F38023 		ubfx	r3, r3, #10, #1
 111 0030 43EA4203 		orr	r3, r3, r2, lsl #1
 112              		.loc 1 91 14 view .LVU31
 113 0034 0B71     		strb	r3, [r1, #4]
  92:App/Src/app_crsf.c ****   packed[5]  = (uint8_t)((channels[3] & 0x07FF) >> 7 | (channels[4] & 0x07FF) << 4);
 114              		.loc 1 92 3 is_stmt 1 view .LVU32
 115              		.loc 1 92 35 is_stmt 0 view .LVU33
 116 0036 C388     		ldrh	r3, [r0, #6]
 117              		.loc 1 92 65 view .LVU34
 118 0038 0289     		ldrh	r2, [r0, #8]
 119              		.loc 1 92 54 view .LVU35
 120 003a C3F3C313 		ubfx	r3, r3, #7, #4
 121 003e 43EA0213 		orr	r3, r3, r2, lsl #4
 122              		.loc 1 92 14 view .LVU36
 123 0042 4B71     		strb	r3, [r1, #5]
  93:App/Src/app_crsf.c ****   packed[6]  = (uint8_t)((channels[4] & 0x07FF) >> 4 | (channels[5] & 0x07FF) << 7);
 124              		.loc 1 93 3 is_stmt 1 view .LVU37
 125              		.loc 1 93 35 is_stmt 0 view .LVU38
 126 0044 0389     		ldrh	r3, [r0, #8]
 127              		.loc 1 93 65 view .LVU39
 128 0046 4289     		ldrh	r2, [r0, #10]
 129              		.loc 1 93 54 view .LVU40
 130 0048 C3F30613 		ubfx	r3, r3, #4, #7
 131 004c 43EAC213 		orr	r3, r3, r2, lsl #7
 132              		.loc 1 93 14 view .LVU41
 133 0050 8B71     		strb	r3, [r1, #6]
  94:App/Src/app_crsf.c ****   packed[7]  = (uint8_t)((channels[5] & 0x07FF) >> 1);
 134              		.loc 1 94 3 is_stmt 1 view .LVU42
 135              		.loc 1 94 35 is_stmt 0 view .LVU43
ARM GAS  C:\Users\PC\AppData\Local\Temp\ccn0vriU.s 			page 5


 136 0052 4389     		ldrh	r3, [r0, #10]
 137              		.loc 1 94 16 view .LVU44
 138 0054 C3F34703 		ubfx	r3, r3, #1, #8
 139              		.loc 1 94 14 view .LVU45
 140 0058 CB71     		strb	r3, [r1, #7]
  95:App/Src/app_crsf.c ****   packed[8]  = (uint8_t)((channels[5] & 0x07FF) >> 9 | (channels[6] & 0x07FF) << 2);
 141              		.loc 1 95 3 is_stmt 1 view .LVU46
 142              		.loc 1 95 35 is_stmt 0 view .LVU47
 143 005a 4389     		ldrh	r3, [r0, #10]
 144              		.loc 1 95 65 view .LVU48
 145 005c 8289     		ldrh	r2, [r0, #12]
 146              		.loc 1 95 54 view .LVU49
 147 005e C3F34123 		ubfx	r3, r3, #9, #2
 148 0062 43EA8203 		orr	r3, r3, r2, lsl #2
 149              		.loc 1 95 14 view .LVU50
 150 0066 0B72     		strb	r3, [r1, #8]
  96:App/Src/app_crsf.c ****   packed[9]  = (uint8_t)((channels[6] & 0x07FF) >> 6 | (channels[7] & 0x07FF) << 5);
 151              		.loc 1 96 3 is_stmt 1 view .LVU51
 152              		.loc 1 96 35 is_stmt 0 view .LVU52
 153 0068 8389     		ldrh	r3, [r0, #12]
 154              		.loc 1 96 65 view .LVU53
 155 006a C289     		ldrh	r2, [r0, #14]
 156              		.loc 1 96 54 view .LVU54
 157 006c C3F38413 		ubfx	r3, r3, #6, #5
 158 0070 43EA4213 		orr	r3, r3, r2, lsl #5
 159              		.loc 1 96 14 view .LVU55
 160 0074 4B72     		strb	r3, [r1, #9]
  97:App/Src/app_crsf.c ****   packed[10] = (uint8_t)((channels[7] & 0x07FF) >> 3);
 161              		.loc 1 97 3 is_stmt 1 view .LVU56
 162              		.loc 1 97 35 is_stmt 0 view .LVU57
 163 0076 C389     		ldrh	r3, [r0, #14]
 164              		.loc 1 97 16 view .LVU58
 165 0078 C3F3C703 		ubfx	r3, r3, #3, #8
 166              		.loc 1 97 14 view .LVU59
 167 007c 8B72     		strb	r3, [r1, #10]
  98:App/Src/app_crsf.c ****   packed[11] = (uint8_t)((channels[8] & 0x07FF));
 168              		.loc 1 98 3 is_stmt 1 view .LVU60
 169              		.loc 1 98 16 is_stmt 0 view .LVU61
 170 007e 037C     		ldrb	r3, [r0, #16]	@ zero_extendqisi2
 171              		.loc 1 98 14 view .LVU62
 172 0080 CB72     		strb	r3, [r1, #11]
  99:App/Src/app_crsf.c ****   packed[12] = (uint8_t)((channels[8] & 0x07FF) >> 8 | (channels[9] & 0x07FF) << 3);
 173              		.loc 1 99 3 is_stmt 1 view .LVU63
 174              		.loc 1 99 35 is_stmt 0 view .LVU64
 175 0082 038A     		ldrh	r3, [r0, #16]
 176              		.loc 1 99 65 view .LVU65
 177 0084 428A     		ldrh	r2, [r0, #18]
 178              		.loc 1 99 54 view .LVU66
 179 0086 C3F30223 		ubfx	r3, r3, #8, #3
 180 008a 43EAC203 		orr	r3, r3, r2, lsl #3
 181              		.loc 1 99 14 view .LVU67
 182 008e 0B73     		strb	r3, [r1, #12]
 100:App/Src/app_crsf.c ****   packed[13] = (uint8_t)((channels[9] & 0x07FF) >> 5 | (channels[10] & 0x07FF) << 6);
 183              		.loc 1 100 3 is_stmt 1 view .LVU68
 184              		.loc 1 100 35 is_stmt 0 view .LVU69
 185 0090 438A     		ldrh	r3, [r0, #18]
 186              		.loc 1 100 65 view .LVU70
ARM GAS  C:\Users\PC\AppData\Local\Temp\ccn0vriU.s 			page 6


 187 0092 828A     		ldrh	r2, [r0, #20]
 188              		.loc 1 100 54 view .LVU71
 189 0094 C3F34513 		ubfx	r3, r3, #5, #6
 190 0098 43EA8213 		orr	r3, r3, r2, lsl #6
 191              		.loc 1 100 14 view .LVU72
 192 009c 4B73     		strb	r3, [r1, #13]
 101:App/Src/app_crsf.c ****   packed[14] = (uint8_t)((channels[10] & 0x07FF) >> 2);
 193              		.loc 1 101 3 is_stmt 1 view .LVU73
 194              		.loc 1 101 35 is_stmt 0 view .LVU74
 195 009e 838A     		ldrh	r3, [r0, #20]
 196              		.loc 1 101 16 view .LVU75
 197 00a0 C3F38703 		ubfx	r3, r3, #2, #8
 198              		.loc 1 101 14 view .LVU76
 199 00a4 8B73     		strb	r3, [r1, #14]
 102:App/Src/app_crsf.c ****   packed[15] = (uint8_t)((channels[10] & 0x07FF) >> 10 | (channels[11] & 0x07FF) << 1);
 200              		.loc 1 102 3 is_stmt 1 view .LVU77
 201              		.loc 1 102 35 is_stmt 0 view .LVU78
 202 00a6 838A     		ldrh	r3, [r0, #20]
 203              		.loc 1 102 67 view .LVU79
 204 00a8 C28A     		ldrh	r2, [r0, #22]
 205              		.loc 1 102 56 view .LVU80
 206 00aa C3F38023 		ubfx	r3, r3, #10, #1
 207 00ae 43EA4203 		orr	r3, r3, r2, lsl #1
 208              		.loc 1 102 14 view .LVU81
 209 00b2 CB73     		strb	r3, [r1, #15]
 103:App/Src/app_crsf.c ****   packed[16] = (uint8_t)((channels[11] & 0x07FF) >> 7 | (channels[12] & 0x07FF) << 4);
 210              		.loc 1 103 3 is_stmt 1 view .LVU82
 211              		.loc 1 103 35 is_stmt 0 view .LVU83
 212 00b4 C38A     		ldrh	r3, [r0, #22]
 213              		.loc 1 103 66 view .LVU84
 214 00b6 028B     		ldrh	r2, [r0, #24]
 215              		.loc 1 103 55 view .LVU85
 216 00b8 C3F3C313 		ubfx	r3, r3, #7, #4
 217 00bc 43EA0213 		orr	r3, r3, r2, lsl #4
 218              		.loc 1 103 14 view .LVU86
 219 00c0 0B74     		strb	r3, [r1, #16]
 104:App/Src/app_crsf.c ****   packed[17] = (uint8_t)((channels[12] & 0x07FF) >> 4 | (channels[13] & 0x07FF) << 7);
 220              		.loc 1 104 3 is_stmt 1 view .LVU87
 221              		.loc 1 104 35 is_stmt 0 view .LVU88
 222 00c2 038B     		ldrh	r3, [r0, #24]
 223              		.loc 1 104 66 view .LVU89
 224 00c4 428B     		ldrh	r2, [r0, #26]
 225              		.loc 1 104 55 view .LVU90
 226 00c6 C3F30613 		ubfx	r3, r3, #4, #7
 227 00ca 43EAC213 		orr	r3, r3, r2, lsl #7
 228              		.loc 1 104 14 view .LVU91
 229 00ce 4B74     		strb	r3, [r1, #17]
 105:App/Src/app_crsf.c ****   packed[18] = (uint8_t)((channels[13] & 0x07FF) >> 1);
 230              		.loc 1 105 3 is_stmt 1 view .LVU92
 231              		.loc 1 105 35 is_stmt 0 view .LVU93
 232 00d0 438B     		ldrh	r3, [r0, #26]
 233              		.loc 1 105 16 view .LVU94
 234 00d2 C3F34703 		ubfx	r3, r3, #1, #8
 235              		.loc 1 105 14 view .LVU95
 236 00d6 8B74     		strb	r3, [r1, #18]
 106:App/Src/app_crsf.c ****   packed[19] = (uint8_t)((channels[13] & 0x07FF) >> 9 | (channels[14] & 0x07FF) << 2);
 237              		.loc 1 106 3 is_stmt 1 view .LVU96
ARM GAS  C:\Users\PC\AppData\Local\Temp\ccn0vriU.s 			page 7


 238              		.loc 1 106 35 is_stmt 0 view .LVU97
 239 00d8 438B     		ldrh	r3, [r0, #26]
 240              		.loc 1 106 66 view .LVU98
 241 00da 828B     		ldrh	r2, [r0, #28]
 242              		.loc 1 106 55 view .LVU99
 243 00dc C3F34123 		ubfx	r3, r3, #9, #2
 244 00e0 43EA8203 		orr	r3, r3, r2, lsl #2
 245              		.loc 1 106 14 view .LVU100
 246 00e4 CB74     		strb	r3, [r1, #19]
 107:App/Src/app_crsf.c ****   packed[20] = (uint8_t)((channels[14] & 0x07FF) >> 6 | (channels[15] & 0x07FF) << 5);
 247              		.loc 1 107 3 is_stmt 1 view .LVU101
 248              		.loc 1 107 35 is_stmt 0 view .LVU102
 249 00e6 838B     		ldrh	r3, [r0, #28]
 250              		.loc 1 107 66 view .LVU103
 251 00e8 C28B     		ldrh	r2, [r0, #30]
 252              		.loc 1 107 55 view .LVU104
 253 00ea C3F38413 		ubfx	r3, r3, #6, #5
 254 00ee 43EA4213 		orr	r3, r3, r2, lsl #5
 255              		.loc 1 107 14 view .LVU105
 256 00f2 0B75     		strb	r3, [r1, #20]
 108:App/Src/app_crsf.c ****   packed[21] = (uint8_t)((channels[15] & 0x07FF) >> 3);
 257              		.loc 1 108 3 is_stmt 1 view .LVU106
 258              		.loc 1 108 35 is_stmt 0 view .LVU107
 259 00f4 C38B     		ldrh	r3, [r0, #30]
 260              		.loc 1 108 16 view .LVU108
 261 00f6 C3F3C703 		ubfx	r3, r3, #3, #8
 262              		.loc 1 108 14 view .LVU109
 263 00fa 4B75     		strb	r3, [r1, #21]
 109:App/Src/app_crsf.c **** }
 264              		.loc 1 109 1 view .LVU110
 265 00fc 7047     		bx	lr
 266              		.cfi_endproc
 267              	.LFE68:
 269              		.section	.text.AppCrsf_Crc8,"ax",%progbits
 270              		.align	1
 271              		.syntax unified
 272              		.thumb
 273              		.thumb_func
 275              	AppCrsf_Crc8:
 276              	.LVL5:
 277              	.LFB69:
 110:App/Src/app_crsf.c **** 
 111:App/Src/app_crsf.c **** static uint8_t AppCrsf_Crc8(const uint8_t *data, uint8_t length)
 112:App/Src/app_crsf.c **** {
 278              		.loc 1 112 1 is_stmt 1 view -0
 279              		.cfi_startproc
 280              		@ args = 0, pretend = 0, frame = 0
 281              		@ frame_needed = 0, uses_anonymous_args = 0
 282              		@ link register save eliminated.
 283              		.loc 1 112 1 is_stmt 0 view .LVU112
 284 0000 8446     		mov	ip, r0
 113:App/Src/app_crsf.c ****   uint8_t crc = 0;
 285              		.loc 1 113 3 is_stmt 1 view .LVU113
 286              	.LVL6:
 114:App/Src/app_crsf.c ****   uint8_t i, j;
 287              		.loc 1 114 3 view .LVU114
 115:App/Src/app_crsf.c **** 
ARM GAS  C:\Users\PC\AppData\Local\Temp\ccn0vriU.s 			page 8


 116:App/Src/app_crsf.c ****   for (i = 0; i < length; i++)
 288              		.loc 1 116 3 view .LVU115
 289              		.loc 1 116 10 is_stmt 0 view .LVU116
 290 0002 0022     		movs	r2, #0
 113:App/Src/app_crsf.c ****   uint8_t i, j;
 291              		.loc 1 113 11 view .LVU117
 292 0004 1046     		mov	r0, r2
 293              	.LVL7:
 294              		.loc 1 116 3 view .LVU118
 295 0006 0FE0     		b	.L7
 296              	.LVL8:
 297              	.L14:
 117:App/Src/app_crsf.c ****   {
 118:App/Src/app_crsf.c ****     crc ^= data[i];
 119:App/Src/app_crsf.c ****     for (j = 0; j < 8; j++)
 120:App/Src/app_crsf.c ****     {
 121:App/Src/app_crsf.c ****       if (crc & 0x80)
 122:App/Src/app_crsf.c ****       {
 123:App/Src/app_crsf.c ****         crc = (uint8_t)((crc << 1) ^ CRSF_CRC_POLY);
 298              		.loc 1 123 9 is_stmt 1 view .LVU119
 299              		.loc 1 123 30 is_stmt 0 view .LVU120
 300 0008 4000     		lsls	r0, r0, #1
 301              	.LVL9:
 302              		.loc 1 123 30 view .LVU121
 303 000a C0B2     		uxtb	r0, r0
 304              		.loc 1 123 13 view .LVU122
 305 000c 80F0D500 		eor	r0, r0, #213
 306              	.LVL10:
 307              	.L10:
 119:App/Src/app_crsf.c ****     {
 308              		.loc 1 119 25 is_stmt 1 discriminator 2 view .LVU123
 309 0010 0133     		adds	r3, r3, #1
 310              	.LVL11:
 119:App/Src/app_crsf.c ****     {
 311              		.loc 1 119 25 is_stmt 0 discriminator 2 view .LVU124
 312 0012 DBB2     		uxtb	r3, r3
 313              	.LVL12:
 314              	.L8:
 119:App/Src/app_crsf.c ****     {
 315              		.loc 1 119 19 is_stmt 1 discriminator 1 view .LVU125
 316 0014 072B     		cmp	r3, #7
 317 0016 05D8     		bhi	.L13
 121:App/Src/app_crsf.c ****       {
 318              		.loc 1 121 7 view .LVU126
 121:App/Src/app_crsf.c ****       {
 319              		.loc 1 121 10 is_stmt 0 view .LVU127
 320 0018 10F0800F 		tst	r0, #128
 321 001c F4D1     		bne	.L14
 124:App/Src/app_crsf.c ****       }
 125:App/Src/app_crsf.c ****       else
 126:App/Src/app_crsf.c ****       {
 127:App/Src/app_crsf.c ****         crc = (uint8_t)(crc << 1);
 322              		.loc 1 127 9 is_stmt 1 view .LVU128
 323              		.loc 1 127 13 is_stmt 0 view .LVU129
 324 001e 4000     		lsls	r0, r0, #1
 325              	.LVL13:
 326              		.loc 1 127 13 view .LVU130
ARM GAS  C:\Users\PC\AppData\Local\Temp\ccn0vriU.s 			page 9


 327 0020 C0B2     		uxtb	r0, r0
 328 0022 F5E7     		b	.L10
 329              	.LVL14:
 330              	.L13:
 116:App/Src/app_crsf.c ****   {
 331              		.loc 1 116 28 is_stmt 1 discriminator 2 view .LVU131
 332 0024 0132     		adds	r2, r2, #1
 333              	.LVL15:
 116:App/Src/app_crsf.c ****   {
 334              		.loc 1 116 28 is_stmt 0 discriminator 2 view .LVU132
 335 0026 D2B2     		uxtb	r2, r2
 336              	.LVL16:
 337              	.L7:
 116:App/Src/app_crsf.c ****   {
 338              		.loc 1 116 17 is_stmt 1 discriminator 1 view .LVU133
 339 0028 8A42     		cmp	r2, r1
 340 002a 04D2     		bcs	.L15
 118:App/Src/app_crsf.c ****     for (j = 0; j < 8; j++)
 341              		.loc 1 118 5 view .LVU134
 118:App/Src/app_crsf.c ****     for (j = 0; j < 8; j++)
 342              		.loc 1 118 16 is_stmt 0 view .LVU135
 343 002c 1CF80230 		ldrb	r3, [ip, r2]	@ zero_extendqisi2
 118:App/Src/app_crsf.c ****     for (j = 0; j < 8; j++)
 344              		.loc 1 118 9 view .LVU136
 345 0030 5840     		eors	r0, r0, r3
 346              	.LVL17:
 119:App/Src/app_crsf.c ****     {
 347              		.loc 1 119 5 is_stmt 1 view .LVU137
 119:App/Src/app_crsf.c ****     {
 348              		.loc 1 119 12 is_stmt 0 view .LVU138
 349 0032 0023     		movs	r3, #0
 119:App/Src/app_crsf.c ****     {
 350              		.loc 1 119 5 view .LVU139
 351 0034 EEE7     		b	.L8
 352              	.LVL18:
 353              	.L15:
 128:App/Src/app_crsf.c ****       }
 129:App/Src/app_crsf.c ****     }
 130:App/Src/app_crsf.c ****   }
 131:App/Src/app_crsf.c ****   return crc;
 354              		.loc 1 131 3 is_stmt 1 view .LVU140
 132:App/Src/app_crsf.c **** }
 355              		.loc 1 132 1 is_stmt 0 view .LVU141
 356 0036 7047     		bx	lr
 357              		.cfi_endproc
 358              	.LFE69:
 360              		.section	.text.AppCrsf_SendFrame,"ax",%progbits
 361              		.align	1
 362              		.syntax unified
 363              		.thumb
 364              		.thumb_func
 366              	AppCrsf_SendFrame:
 367              	.LVL19:
 368              	.LFB70:
 133:App/Src/app_crsf.c **** 
 134:App/Src/app_crsf.c **** static void AppCrsf_SendFrame(UART_HandleTypeDef *uart, const uint8_t *frame, uint8_t length)
 135:App/Src/app_crsf.c **** {
ARM GAS  C:\Users\PC\AppData\Local\Temp\ccn0vriU.s 			page 10


 369              		.loc 1 135 1 is_stmt 1 view -0
 370              		.cfi_startproc
 371              		@ args = 0, pretend = 0, frame = 0
 372              		@ frame_needed = 0, uses_anonymous_args = 0
 136:App/Src/app_crsf.c ****   uint8_t i;
 373              		.loc 1 136 3 view .LVU143
 137:App/Src/app_crsf.c ****   uint32_t start;
 374              		.loc 1 137 3 view .LVU144
 138:App/Src/app_crsf.c ****   const uint32_t timeout_ms = 10;
 375              		.loc 1 138 3 view .LVU145
 139:App/Src/app_crsf.c **** 
 140:App/Src/app_crsf.c ****   if (uart == NULL || frame == NULL)
 376              		.loc 1 140 3 view .LVU146
 377              		.loc 1 140 6 is_stmt 0 view .LVU147
 378 0000 E0B1     		cbz	r0, .L23
 135:App/Src/app_crsf.c ****   uint8_t i;
 379              		.loc 1 135 1 view .LVU148
 380 0002 2DE9F041 		push	{r4, r5, r6, r7, r8, lr}
 381              	.LCFI0:
 382              		.cfi_def_cfa_offset 24
 383              		.cfi_offset 4, -24
 384              		.cfi_offset 5, -20
 385              		.cfi_offset 6, -16
 386              		.cfi_offset 7, -12
 387              		.cfi_offset 8, -8
 388              		.cfi_offset 14, -4
 389 0006 0F46     		mov	r7, r1
 390 0008 9046     		mov	r8, r2
 391 000a 0546     		mov	r5, r0
 392              		.loc 1 140 20 discriminator 1 view .LVU149
 393 000c 79B1     		cbz	r1, .L16
 141:App/Src/app_crsf.c ****   {
 142:App/Src/app_crsf.c ****     return;
 143:App/Src/app_crsf.c ****   }
 144:App/Src/app_crsf.c **** 
 145:App/Src/app_crsf.c ****   for (i = 0; i < length; i++)
 394              		.loc 1 145 10 view .LVU150
 395 000e 0026     		movs	r6, #0
 396              	.LVL20:
 397              	.L18:
 398              		.loc 1 145 17 is_stmt 1 discriminator 1 view .LVU151
 399 0010 4645     		cmp	r6, r8
 400 0012 0CD2     		bcs	.L16
 146:App/Src/app_crsf.c ****   {
 147:App/Src/app_crsf.c ****     start = HAL_GetTick();
 401              		.loc 1 147 5 view .LVU152
 402              		.loc 1 147 13 is_stmt 0 view .LVU153
 403 0014 FFF7FEFF 		bl	HAL_GetTick
 404              	.LVL21:
 405 0018 0446     		mov	r4, r0
 406              	.LVL22:
 148:App/Src/app_crsf.c ****     while (__HAL_UART_GET_FLAG(uart, UART_FLAG_TXE) == RESET)
 407              		.loc 1 148 5 is_stmt 1 view .LVU154
 408              	.L19:
 409              		.loc 1 148 53 view .LVU155
 410              		.loc 1 148 12 is_stmt 0 view .LVU156
 411 001a 2B68     		ldr	r3, [r5]
ARM GAS  C:\Users\PC\AppData\Local\Temp\ccn0vriU.s 			page 11


 412 001c 1A68     		ldr	r2, [r3]
 413              		.loc 1 148 53 view .LVU157
 414 001e 12F0800F 		tst	r2, #128
 415 0022 06D1     		bne	.L26
 149:App/Src/app_crsf.c ****     {
 150:App/Src/app_crsf.c ****       if ((HAL_GetTick() - start) >= timeout_ms)
 416              		.loc 1 150 7 is_stmt 1 view .LVU158
 417              		.loc 1 150 12 is_stmt 0 view .LVU159
 418 0024 FFF7FEFF 		bl	HAL_GetTick
 419              	.LVL23:
 420              		.loc 1 150 26 discriminator 1 view .LVU160
 421 0028 001B     		subs	r0, r0, r4
 422              		.loc 1 150 10 discriminator 1 view .LVU161
 423 002a 0928     		cmp	r0, #9
 424 002c F5D9     		bls	.L19
 425              	.LVL24:
 426              	.L16:
 151:App/Src/app_crsf.c ****       {
 152:App/Src/app_crsf.c ****         return;
 153:App/Src/app_crsf.c ****       }
 154:App/Src/app_crsf.c ****     }
 155:App/Src/app_crsf.c ****     uart->Instance->DR = frame[i];
 156:App/Src/app_crsf.c ****   }
 157:App/Src/app_crsf.c **** }
 427              		.loc 1 157 1 view .LVU162
 428 002e BDE8F081 		pop	{r4, r5, r6, r7, r8, pc}
 429              	.LVL25:
 430              	.L26:
 155:App/Src/app_crsf.c ****   }
 431              		.loc 1 155 5 is_stmt 1 view .LVU163
 155:App/Src/app_crsf.c ****   }
 432              		.loc 1 155 31 is_stmt 0 view .LVU164
 433 0032 BA5D     		ldrb	r2, [r7, r6]	@ zero_extendqisi2
 155:App/Src/app_crsf.c ****   }
 434              		.loc 1 155 24 view .LVU165
 435 0034 5A60     		str	r2, [r3, #4]
 145:App/Src/app_crsf.c ****   {
 436              		.loc 1 145 28 is_stmt 1 discriminator 2 view .LVU166
 437 0036 0136     		adds	r6, r6, #1
 438              	.LVL26:
 145:App/Src/app_crsf.c ****   {
 439              		.loc 1 145 28 is_stmt 0 discriminator 2 view .LVU167
 440 0038 F6B2     		uxtb	r6, r6
 441              	.LVL27:
 145:App/Src/app_crsf.c ****   {
 442              		.loc 1 145 28 discriminator 2 view .LVU168
 443 003a E9E7     		b	.L18
 444              	.LVL28:
 445              	.L23:
 446              	.LCFI1:
 447              		.cfi_def_cfa_offset 0
 448              		.cfi_restore 4
 449              		.cfi_restore 5
 450              		.cfi_restore 6
 451              		.cfi_restore 7
 452              		.cfi_restore 8
 453              		.cfi_restore 14
ARM GAS  C:\Users\PC\AppData\Local\Temp\ccn0vriU.s 			page 12


 145:App/Src/app_crsf.c ****   {
 454              		.loc 1 145 28 discriminator 2 view .LVU169
 455 003c 7047     		bx	lr
 456              		.cfi_endproc
 457              	.LFE70:
 459              		.section	.text.AppCrsf_SendRcChannels,"ax",%progbits
 460              		.align	1
 461              		.global	AppCrsf_SendRcChannels
 462              		.syntax unified
 463              		.thumb
 464              		.thumb_func
 466              	AppCrsf_SendRcChannels:
 467              	.LVL29:
 468              	.LFB65:
  15:App/Src/app_crsf.c ****   uint8_t frame[26];
 469              		.loc 1 15 1 is_stmt 1 view -0
 470              		.cfi_startproc
 471              		@ args = 0, pretend = 0, frame = 64
 472              		@ frame_needed = 0, uses_anonymous_args = 0
  16:App/Src/app_crsf.c ****   uint16_t clamped_channels[APP_CRSF_CHANNEL_COUNT];
 473              		.loc 1 16 3 view .LVU171
  17:App/Src/app_crsf.c ****   uint8_t i;
 474              		.loc 1 17 3 view .LVU172
  18:App/Src/app_crsf.c **** 
 475              		.loc 1 18 3 view .LVU173
  20:App/Src/app_crsf.c ****   {
 476              		.loc 1 20 3 view .LVU174
  20:App/Src/app_crsf.c ****   {
 477              		.loc 1 20 6 is_stmt 0 view .LVU175
 478 0000 88B3     		cbz	r0, .L34
  15:App/Src/app_crsf.c ****   uint8_t frame[26];
 479              		.loc 1 15 1 view .LVU176
 480 0002 F0B5     		push	{r4, r5, r6, r7, lr}
 481              	.LCFI2:
 482              		.cfi_def_cfa_offset 20
 483              		.cfi_offset 4, -20
 484              		.cfi_offset 5, -16
 485              		.cfi_offset 6, -12
 486              		.cfi_offset 7, -8
 487              		.cfi_offset 14, -4
 488 0004 91B0     		sub	sp, sp, #68
 489              	.LCFI3:
 490              		.cfi_def_cfa_offset 88
 491 0006 0E46     		mov	r6, r1
 492 0008 0746     		mov	r7, r0
  20:App/Src/app_crsf.c ****   {
 493              		.loc 1 20 20 discriminator 1 view .LVU177
 494 000a 51B3     		cbz	r1, .L27
  26:App/Src/app_crsf.c ****   {
 495              		.loc 1 26 10 view .LVU178
 496 000c 0024     		movs	r4, #0
 497 000e 0CE0     		b	.L29
 498              	.LVL30:
 499              	.L31:
  28:App/Src/app_crsf.c ****   }
 500              		.loc 1 28 5 is_stmt 1 view .LVU179
  28:App/Src/app_crsf.c ****   }
ARM GAS  C:\Users\PC\AppData\Local\Temp\ccn0vriU.s 			page 13


 501              		.loc 1 28 56 is_stmt 0 view .LVU180
 502 0010 6500     		lsls	r5, r4, #1
  28:App/Src/app_crsf.c ****   }
 503              		.loc 1 28 27 view .LVU181
 504 0012 36F81400 		ldrh	r0, [r6, r4, lsl #1]
 505 0016 FFF7FEFF 		bl	AppCrsf_ClampChannel
 506              	.LVL31:
  28:App/Src/app_crsf.c ****   }
 507              		.loc 1 28 25 discriminator 1 view .LVU182
 508 001a 05F14003 		add	r3, r5, #64
 509 001e 0DEB0305 		add	r5, sp, r3
 510 0022 25F83C0C 		strh	r0, [r5, #-60]	@ movhi
  26:App/Src/app_crsf.c ****   {
 511              		.loc 1 26 44 is_stmt 1 discriminator 3 view .LVU183
 512 0026 0134     		adds	r4, r4, #1
 513              	.LVL32:
  26:App/Src/app_crsf.c ****   {
 514              		.loc 1 26 44 is_stmt 0 discriminator 3 view .LVU184
 515 0028 E4B2     		uxtb	r4, r4
 516              	.LVL33:
 517              	.L29:
  26:App/Src/app_crsf.c ****   {
 518              		.loc 1 26 17 is_stmt 1 discriminator 1 view .LVU185
 519 002a 0F2C     		cmp	r4, #15
 520 002c F0D9     		bls	.L31
  32:App/Src/app_crsf.c ****   frame[1] = CRSF_FRAME_SIZE_RC_CHANNELS;
 521              		.loc 1 32 3 view .LVU186
  32:App/Src/app_crsf.c ****   frame[1] = CRSF_FRAME_SIZE_RC_CHANNELS;
 522              		.loc 1 32 12 is_stmt 0 view .LVU187
 523 002e C823     		movs	r3, #200
 524 0030 8DF82430 		strb	r3, [sp, #36]
  33:App/Src/app_crsf.c ****   frame[2] = CRSF_FRAMETYPE_RC_CHANNELS_PACKED;
 525              		.loc 1 33 3 is_stmt 1 view .LVU188
  33:App/Src/app_crsf.c ****   frame[2] = CRSF_FRAMETYPE_RC_CHANNELS_PACKED;
 526              		.loc 1 33 12 is_stmt 0 view .LVU189
 527 0034 1823     		movs	r3, #24
 528 0036 8DF82530 		strb	r3, [sp, #37]
  34:App/Src/app_crsf.c **** 
 529              		.loc 1 34 3 is_stmt 1 view .LVU190
  34:App/Src/app_crsf.c **** 
 530              		.loc 1 34 12 is_stmt 0 view .LVU191
 531 003a 1623     		movs	r3, #22
 532 003c 8DF82630 		strb	r3, [sp, #38]
  37:App/Src/app_crsf.c **** 
 533              		.loc 1 37 3 is_stmt 1 view .LVU192
 534 0040 0DF12701 		add	r1, sp, #39
 535 0044 01A8     		add	r0, sp, #4
 536 0046 FFF7FEFF 		bl	AppCrsf_PackChannels
 537              	.LVL34:
  40:App/Src/app_crsf.c **** 
 538              		.loc 1 40 3 view .LVU193
  40:App/Src/app_crsf.c **** 
 539              		.loc 1 40 15 is_stmt 0 view .LVU194
 540 004a 1721     		movs	r1, #23
 541 004c 0DF12600 		add	r0, sp, #38
 542 0050 FFF7FEFF 		bl	AppCrsf_Crc8
 543              	.LVL35:
ARM GAS  C:\Users\PC\AppData\Local\Temp\ccn0vriU.s 			page 14


  40:App/Src/app_crsf.c **** 
 544              		.loc 1 40 13 discriminator 1 view .LVU195
 545 0054 8DF83D00 		strb	r0, [sp, #61]
  42:App/Src/app_crsf.c **** }
 546              		.loc 1 42 3 is_stmt 1 view .LVU196
 547 0058 1A22     		movs	r2, #26
 548 005a 09A9     		add	r1, sp, #36
 549 005c 3846     		mov	r0, r7
 550 005e FFF7FEFF 		bl	AppCrsf_SendFrame
 551              	.LVL36:
 552              	.L27:
  43:App/Src/app_crsf.c **** 
 553              		.loc 1 43 1 is_stmt 0 view .LVU197
 554 0062 11B0     		add	sp, sp, #68
 555              	.LCFI4:
 556              		.cfi_def_cfa_offset 20
 557              		@ sp needed
 558 0064 F0BD     		pop	{r4, r5, r6, r7, pc}
 559              	.LVL37:
 560              	.L34:
 561              	.LCFI5:
 562              		.cfi_def_cfa_offset 0
 563              		.cfi_restore 4
 564              		.cfi_restore 5
 565              		.cfi_restore 6
 566              		.cfi_restore 7
 567              		.cfi_restore 14
  43:App/Src/app_crsf.c **** 
 568              		.loc 1 43 1 view .LVU198
 569 0066 7047     		bx	lr
 570              		.cfi_endproc
 571              	.LFE65:
 573              		.section	.text.AppCrsf_SendFailsafe,"ax",%progbits
 574              		.align	1
 575              		.global	AppCrsf_SendFailsafe
 576              		.syntax unified
 577              		.thumb
 578              		.thumb_func
 580              	AppCrsf_SendFailsafe:
 581              	.LVL38:
 582              	.LFB66:
  46:App/Src/app_crsf.c ****   uint16_t failsafe_channels[APP_CRSF_CHANNEL_COUNT];
 583              		.loc 1 46 1 is_stmt 1 view -0
 584              		.cfi_startproc
 585              		@ args = 0, pretend = 0, frame = 32
 586              		@ frame_needed = 0, uses_anonymous_args = 0
  46:App/Src/app_crsf.c ****   uint16_t failsafe_channels[APP_CRSF_CHANNEL_COUNT];
 587              		.loc 1 46 1 is_stmt 0 view .LVU200
 588 0000 00B5     		push	{lr}
 589              	.LCFI6:
 590              		.cfi_def_cfa_offset 4
 591              		.cfi_offset 14, -4
 592 0002 89B0     		sub	sp, sp, #36
 593              	.LCFI7:
 594              		.cfi_def_cfa_offset 40
  47:App/Src/app_crsf.c ****   uint8_t i;
 595              		.loc 1 47 3 is_stmt 1 view .LVU201
ARM GAS  C:\Users\PC\AppData\Local\Temp\ccn0vriU.s 			page 15


  48:App/Src/app_crsf.c **** 
 596              		.loc 1 48 3 view .LVU202
  51:App/Src/app_crsf.c ****   // CH2 Pitch = 992 (mid)
 597              		.loc 1 51 3 view .LVU203
  51:App/Src/app_crsf.c ****   // CH2 Pitch = 992 (mid)
 598              		.loc 1 51 24 is_stmt 0 view .LVU204
 599 0004 4FF47873 		mov	r3, #992
 600 0008 ADF80030 		strh	r3, [sp]	@ movhi
  53:App/Src/app_crsf.c ****   // CH3 Throttle = 172 (min)
 601              		.loc 1 53 3 is_stmt 1 view .LVU205
  53:App/Src/app_crsf.c ****   // CH3 Throttle = 172 (min)
 602              		.loc 1 53 24 is_stmt 0 view .LVU206
 603 000c ADF80230 		strh	r3, [sp, #2]	@ movhi
  55:App/Src/app_crsf.c ****   // CH4 Yaw = 992 (mid)
 604              		.loc 1 55 3 is_stmt 1 view .LVU207
  55:App/Src/app_crsf.c ****   // CH4 Yaw = 992 (mid)
 605              		.loc 1 55 24 is_stmt 0 view .LVU208
 606 0010 AC22     		movs	r2, #172
 607 0012 ADF80420 		strh	r2, [sp, #4]	@ movhi
  57:App/Src/app_crsf.c ****   // CH5 Arm = 172 (disarm)
 608              		.loc 1 57 3 is_stmt 1 view .LVU209
  57:App/Src/app_crsf.c ****   // CH5 Arm = 172 (disarm)
 609              		.loc 1 57 24 is_stmt 0 view .LVU210
 610 0016 ADF80630 		strh	r3, [sp, #6]	@ movhi
  59:App/Src/app_crsf.c ****   // CH6-16 = 992 (mid)
 611              		.loc 1 59 3 is_stmt 1 view .LVU211
  59:App/Src/app_crsf.c ****   // CH6-16 = 992 (mid)
 612              		.loc 1 59 24 is_stmt 0 view .LVU212
 613 001a ADF80820 		strh	r2, [sp, #8]	@ movhi
  61:App/Src/app_crsf.c ****   {
 614              		.loc 1 61 3 is_stmt 1 view .LVU213
 615              	.LVL39:
  61:App/Src/app_crsf.c ****   {
 616              		.loc 1 61 10 is_stmt 0 view .LVU214
 617 001e 0523     		movs	r3, #5
  61:App/Src/app_crsf.c ****   {
 618              		.loc 1 61 3 view .LVU215
 619 0020 08E0     		b	.L38
 620              	.LVL40:
 621              	.L39:
  63:App/Src/app_crsf.c ****   }
 622              		.loc 1 63 5 is_stmt 1 view .LVU216
  63:App/Src/app_crsf.c ****   }
 623              		.loc 1 63 26 is_stmt 0 view .LVU217
 624 0022 08AA     		add	r2, sp, #32
 625 0024 02EB4302 		add	r2, r2, r3, lsl #1
 626 0028 4FF47871 		mov	r1, #992
 627 002c 22F8201C 		strh	r1, [r2, #-32]	@ movhi
  61:App/Src/app_crsf.c ****   {
 628              		.loc 1 61 44 is_stmt 1 discriminator 3 view .LVU218
 629 0030 0133     		adds	r3, r3, #1
 630              	.LVL41:
  61:App/Src/app_crsf.c ****   {
 631              		.loc 1 61 44 is_stmt 0 discriminator 3 view .LVU219
 632 0032 DBB2     		uxtb	r3, r3
 633              	.LVL42:
 634              	.L38:
ARM GAS  C:\Users\PC\AppData\Local\Temp\ccn0vriU.s 			page 16


  61:App/Src/app_crsf.c ****   {
 635              		.loc 1 61 17 is_stmt 1 discriminator 1 view .LVU220
 636 0034 0F2B     		cmp	r3, #15
 637 0036 F4D9     		bls	.L39
  66:App/Src/app_crsf.c **** }
 638              		.loc 1 66 3 view .LVU221
 639 0038 6946     		mov	r1, sp
 640 003a FFF7FEFF 		bl	AppCrsf_SendRcChannels
 641              	.LVL43:
  67:App/Src/app_crsf.c **** 
 642              		.loc 1 67 1 is_stmt 0 view .LVU222
 643 003e 09B0     		add	sp, sp, #36
 644              	.LCFI8:
 645              		.cfi_def_cfa_offset 4
 646              		@ sp needed
 647 0040 5DF804FB 		ldr	pc, [sp], #4
 648              		.cfi_endproc
 649              	.LFE66:
 651              		.text
 652              	.Letext0:
 653              		.file 2 "C:/Program Files (x86)/Arm GNU Toolchain arm-none-eabi/14.2 rel1/arm-none-eabi/include/ma
 654              		.file 3 "C:/Program Files (x86)/Arm GNU Toolchain arm-none-eabi/14.2 rel1/arm-none-eabi/include/sy
 655              		.file 4 "../Drivers/CMSIS/Device/ST/STM32F1xx/Include/stm32f103xb.h"
 656              		.file 5 "../Drivers/CMSIS/Device/ST/STM32F1xx/Include/stm32f1xx.h"
 657              		.file 6 "../Drivers/STM32F1xx_HAL_Driver/Inc/stm32f1xx_hal_def.h"
 658              		.file 7 "../Drivers/STM32F1xx_HAL_Driver/Inc/stm32f1xx_hal_dma.h"
 659              		.file 8 "../Drivers/STM32F1xx_HAL_Driver/Inc/stm32f1xx_hal_uart.h"
 660              		.file 9 "../Drivers/STM32F1xx_HAL_Driver/Inc/stm32f1xx_hal.h"
ARM GAS  C:\Users\PC\AppData\Local\Temp\ccn0vriU.s 			page 17

