ARM GAS  C:\Users\PC\AppData\Local\Temp\ccQwx6G1.s 			page 1


   1              		.cpu cortex-m3
   2              		.arch armv7-m
   3              		.fpu softvfp
   4              		.eabi_attribute 20, 1
   5              		.eabi_attribute 21, 1
   6              		.eabi_attribute 23, 3
   7              		.eabi_attribute 24, 1
   8              		.eabi_attribute 25, 1
   9              		.eabi_attribute 26, 1
  10              		.eabi_attribute 30, 1
  11              		.eabi_attribute 34, 1
  12              		.eabi_attribute 18, 4
  13              		.file	"main.c"
  14              		.text
  15              	.Ltext0:
  16              		.cfi_sections	.debug_frame
  17              		.file 1 "Core/Src/main.c"
  18              		.section	.text.AppWatchdog_Init,"ax",%progbits
  19              		.align	1
  20              		.syntax unified
  21              		.thumb
  22              		.thumb_func
  24              	AppWatchdog_Init:
  25              	.LFB71:
   1:Core/Src/main.c **** #include "main.h"
   2:Core/Src/main.c **** 
   3:Core/Src/main.c **** #include "app.h"
   4:Core/Src/main.c **** #include "app_config.h"
   5:Core/Src/main.c **** #include "app_framework_clock.h"
   6:Core/Src/main.c **** 
   7:Core/Src/main.c **** UART_HandleTypeDef huart1;
   8:Core/Src/main.c **** UART_HandleTypeDef huart2;
   9:Core/Src/main.c **** UART_HandleTypeDef huart3;
  10:Core/Src/main.c **** 
  11:Core/Src/main.c **** void SystemClock_Config(void);
  12:Core/Src/main.c **** static void MX_GPIO_Init(void);
  13:Core/Src/main.c **** static void MX_USART1_UART_Init(void);
  14:Core/Src/main.c **** static void MX_USART2_UART_Init(void);
  15:Core/Src/main.c **** static void MX_USART3_UART_Init(void);
  16:Core/Src/main.c **** static void AppWatchdog_Init(void);
  17:Core/Src/main.c **** static void AppWatchdog_Refresh(void);
  18:Core/Src/main.c **** 
  19:Core/Src/main.c **** #if APP_WATCHDOG_RELOAD > 0x0FFFU
  20:Core/Src/main.c **** #error "APP_WATCHDOG_TIMEOUT_MS is too large for the selected IWDG prescaler."
  21:Core/Src/main.c **** #endif
  22:Core/Src/main.c **** 
  23:Core/Src/main.c **** int main(void)
  24:Core/Src/main.c **** {
  25:Core/Src/main.c **** #if APP_TEST_HANG_AFTER_BOOT_MS > 0U
  26:Core/Src/main.c ****   uint32_t app_start_ms;
  27:Core/Src/main.c **** #endif
  28:Core/Src/main.c ****   app_hw_t app_hw;
  29:Core/Src/main.c **** 
  30:Core/Src/main.c ****   HAL_Init();
  31:Core/Src/main.c ****   AppWatchdog_Refresh();
  32:Core/Src/main.c ****   SystemClock_Config();
  33:Core/Src/main.c ****   AppWatchdog_Refresh();
ARM GAS  C:\Users\PC\AppData\Local\Temp\ccQwx6G1.s 			page 2


  34:Core/Src/main.c ****   MX_GPIO_Init();
  35:Core/Src/main.c ****   AppWatchdog_Refresh();
  36:Core/Src/main.c ****   MX_USART1_UART_Init();
  37:Core/Src/main.c ****   AppWatchdog_Refresh();
  38:Core/Src/main.c ****   MX_USART2_UART_Init();
  39:Core/Src/main.c ****   AppWatchdog_Refresh();
  40:Core/Src/main.c ****   MX_USART3_UART_Init();
  41:Core/Src/main.c ****   AppWatchdog_Refresh();
  42:Core/Src/main.c **** 
  43:Core/Src/main.c ****   app_hw.radio_uart = &huart1;
  44:Core/Src/main.c ****   app_hw.host_uart1 = &huart2;
  45:Core/Src/main.c ****   app_hw.host_uart2 = &huart3;
  46:Core/Src/main.c ****   app_hw.sys_led_port = LED_SYS_GPIO_Port;
  47:Core/Src/main.c ****   app_hw.sys_led_pin = LED_SYS_Pin;
  48:Core/Src/main.c ****   app_hw.radio_m0_port = RADIO_M0_GPIO_Port;
  49:Core/Src/main.c ****   app_hw.radio_m0_pin = RADIO_M0_Pin;
  50:Core/Src/main.c ****   app_hw.radio_m1_port = RADIO_M1_GPIO_Port;
  51:Core/Src/main.c ****   app_hw.radio_m1_pin = RADIO_M1_Pin;
  52:Core/Src/main.c ****   app_hw.radio_m2_port = RADIO_M2_GPIO_Port;
  53:Core/Src/main.c ****   app_hw.radio_m2_pin = RADIO_M2_Pin;
  54:Core/Src/main.c ****   app_hw.radio_aux_port = RADIO_AUX_GPIO_Port;
  55:Core/Src/main.c ****   app_hw.radio_aux_pin = RADIO_AUX_Pin;
  56:Core/Src/main.c **** 
  57:Core/Src/main.c ****   App_Init(&app_hw);
  58:Core/Src/main.c ****   AppWatchdog_Init();
  59:Core/Src/main.c ****   AppWatchdog_Refresh();
  60:Core/Src/main.c **** 
  61:Core/Src/main.c **** #if APP_TEST_HANG_AFTER_BOOT_MS > 0U
  62:Core/Src/main.c ****   app_start_ms = HAL_GetTick();
  63:Core/Src/main.c **** #endif
  64:Core/Src/main.c **** 
  65:Core/Src/main.c ****   while (1)
  66:Core/Src/main.c ****   {
  67:Core/Src/main.c **** #if APP_TEST_HANG_AFTER_BOOT_MS > 0U
  68:Core/Src/main.c ****     if ((HAL_GetTick() - app_start_ms) >= APP_TEST_HANG_AFTER_BOOT_MS)
  69:Core/Src/main.c ****     {
  70:Core/Src/main.c ****       while (1)
  71:Core/Src/main.c ****       {
  72:Core/Src/main.c ****       }
  73:Core/Src/main.c ****     }
  74:Core/Src/main.c **** #endif
  75:Core/Src/main.c ****     App_Run();
  76:Core/Src/main.c ****     AppWatchdog_Refresh();
  77:Core/Src/main.c ****   }
  78:Core/Src/main.c **** }
  79:Core/Src/main.c **** 
  80:Core/Src/main.c **** void SystemClock_Config(void)
  81:Core/Src/main.c **** {
  82:Core/Src/main.c ****   if (AppFrameworkClock_ConfigHsePll6AdcDiv6() != HAL_OK)
  83:Core/Src/main.c ****   {
  84:Core/Src/main.c ****     Error_Handler();
  85:Core/Src/main.c ****   }
  86:Core/Src/main.c **** }
  87:Core/Src/main.c **** 
  88:Core/Src/main.c **** static void MX_USART1_UART_Init(void)
  89:Core/Src/main.c **** {
  90:Core/Src/main.c ****   huart1.Instance = USART1;
ARM GAS  C:\Users\PC\AppData\Local\Temp\ccQwx6G1.s 			page 3


  91:Core/Src/main.c ****   huart1.Init.BaudRate = APP_UART_BAUDRATE;
  92:Core/Src/main.c ****   huart1.Init.WordLength = UART_WORDLENGTH_8B;
  93:Core/Src/main.c ****   huart1.Init.StopBits = UART_STOPBITS_1;
  94:Core/Src/main.c ****   huart1.Init.Parity = UART_PARITY_NONE;
  95:Core/Src/main.c ****   huart1.Init.Mode = UART_MODE_TX_RX;
  96:Core/Src/main.c ****   huart1.Init.HwFlowCtl = UART_HWCONTROL_NONE;
  97:Core/Src/main.c ****   huart1.Init.OverSampling = UART_OVERSAMPLING_16;
  98:Core/Src/main.c ****   if (HAL_UART_Init(&huart1) != HAL_OK)
  99:Core/Src/main.c ****   {
 100:Core/Src/main.c ****     Error_Handler();
 101:Core/Src/main.c ****   }
 102:Core/Src/main.c **** }
 103:Core/Src/main.c **** 
 104:Core/Src/main.c **** static void MX_USART2_UART_Init(void)
 105:Core/Src/main.c **** {
 106:Core/Src/main.c ****   huart2.Instance = USART2;
 107:Core/Src/main.c ****   huart2.Init.BaudRate = APP_UART_BAUDRATE;
 108:Core/Src/main.c ****   huart2.Init.WordLength = UART_WORDLENGTH_8B;
 109:Core/Src/main.c ****   huart2.Init.StopBits = UART_STOPBITS_1;
 110:Core/Src/main.c ****   huart2.Init.Parity = UART_PARITY_NONE;
 111:Core/Src/main.c ****   huart2.Init.Mode = UART_MODE_TX_RX;
 112:Core/Src/main.c ****   huart2.Init.HwFlowCtl = UART_HWCONTROL_NONE;
 113:Core/Src/main.c ****   huart2.Init.OverSampling = UART_OVERSAMPLING_16;
 114:Core/Src/main.c ****   if (HAL_UART_Init(&huart2) != HAL_OK)
 115:Core/Src/main.c ****   {
 116:Core/Src/main.c ****     Error_Handler();
 117:Core/Src/main.c ****   }
 118:Core/Src/main.c **** }
 119:Core/Src/main.c **** 
 120:Core/Src/main.c **** static void MX_USART3_UART_Init(void)
 121:Core/Src/main.c **** {
 122:Core/Src/main.c ****   huart3.Instance = USART3;
 123:Core/Src/main.c ****   huart3.Init.BaudRate = APP_UART_BAUDRATE;
 124:Core/Src/main.c ****   huart3.Init.WordLength = UART_WORDLENGTH_8B;
 125:Core/Src/main.c ****   huart3.Init.StopBits = UART_STOPBITS_1;
 126:Core/Src/main.c ****   huart3.Init.Parity = UART_PARITY_NONE;
 127:Core/Src/main.c ****   huart3.Init.Mode = UART_MODE_TX_RX;
 128:Core/Src/main.c ****   huart3.Init.HwFlowCtl = UART_HWCONTROL_NONE;
 129:Core/Src/main.c ****   huart3.Init.OverSampling = UART_OVERSAMPLING_16;
 130:Core/Src/main.c ****   if (HAL_UART_Init(&huart3) != HAL_OK)
 131:Core/Src/main.c ****   {
 132:Core/Src/main.c ****     Error_Handler();
 133:Core/Src/main.c ****   }
 134:Core/Src/main.c **** }
 135:Core/Src/main.c **** 
 136:Core/Src/main.c **** static void MX_GPIO_Init(void)
 137:Core/Src/main.c **** {
 138:Core/Src/main.c ****   GPIO_InitTypeDef GPIO_InitStruct = {0};
 139:Core/Src/main.c **** 
 140:Core/Src/main.c ****   __HAL_RCC_GPIOC_CLK_ENABLE();
 141:Core/Src/main.c ****   __HAL_RCC_GPIOD_CLK_ENABLE();
 142:Core/Src/main.c ****   __HAL_RCC_GPIOA_CLK_ENABLE();
 143:Core/Src/main.c ****   __HAL_RCC_GPIOB_CLK_ENABLE();
 144:Core/Src/main.c **** 
 145:Core/Src/main.c ****   HAL_GPIO_WritePin(LED_SYS_GPIO_Port, LED_SYS_Pin, APP_SYS_LED_INACTIVE_LEVEL);
 146:Core/Src/main.c ****   HAL_GPIO_WritePin(RADIO_M0_GPIO_Port, RADIO_M0_Pin, GPIO_PIN_RESET);
 147:Core/Src/main.c ****   HAL_GPIO_WritePin(RADIO_M1_GPIO_Port, RADIO_M1_Pin, GPIO_PIN_RESET);
ARM GAS  C:\Users\PC\AppData\Local\Temp\ccQwx6G1.s 			page 4


 148:Core/Src/main.c ****   HAL_GPIO_WritePin(RADIO_M2_GPIO_Port, RADIO_M2_Pin, GPIO_PIN_RESET);
 149:Core/Src/main.c **** 
 150:Core/Src/main.c ****   GPIO_InitStruct.Pin = LED_SYS_Pin;
 151:Core/Src/main.c ****   GPIO_InitStruct.Mode = GPIO_MODE_OUTPUT_PP;
 152:Core/Src/main.c ****   GPIO_InitStruct.Pull = GPIO_NOPULL;
 153:Core/Src/main.c ****   GPIO_InitStruct.Speed = GPIO_SPEED_FREQ_LOW;
 154:Core/Src/main.c ****   HAL_GPIO_Init(LED_SYS_GPIO_Port, &GPIO_InitStruct);
 155:Core/Src/main.c **** 
 156:Core/Src/main.c ****   GPIO_InitStruct.Pin = RADIO_M0_Pin | RADIO_M1_Pin;
 157:Core/Src/main.c ****   GPIO_InitStruct.Mode = GPIO_MODE_OUTPUT_PP;
 158:Core/Src/main.c ****   GPIO_InitStruct.Pull = GPIO_NOPULL;
 159:Core/Src/main.c ****   GPIO_InitStruct.Speed = GPIO_SPEED_FREQ_LOW;
 160:Core/Src/main.c ****   HAL_GPIO_Init(GPIOB, &GPIO_InitStruct);
 161:Core/Src/main.c **** 
 162:Core/Src/main.c ****   GPIO_InitStruct.Pin = RADIO_M2_Pin;
 163:Core/Src/main.c ****   HAL_GPIO_Init(RADIO_M2_GPIO_Port, &GPIO_InitStruct);
 164:Core/Src/main.c **** 
 165:Core/Src/main.c ****   GPIO_InitStruct.Pin = RADIO_AUX_Pin;
 166:Core/Src/main.c ****   GPIO_InitStruct.Mode = GPIO_MODE_INPUT;
 167:Core/Src/main.c ****   GPIO_InitStruct.Pull = GPIO_NOPULL;
 168:Core/Src/main.c ****   HAL_GPIO_Init(RADIO_AUX_GPIO_Port, &GPIO_InitStruct);
 169:Core/Src/main.c **** }
 170:Core/Src/main.c **** 
 171:Core/Src/main.c **** static void AppWatchdog_Init(void)
 172:Core/Src/main.c **** {
  26              		.loc 1 172 1 view -0
  27              		.cfi_startproc
  28              		@ args = 0, pretend = 0, frame = 0
  29              		@ frame_needed = 0, uses_anonymous_args = 0
  30              		@ link register save eliminated.
 173:Core/Src/main.c ****   uint32_t reload;
  31              		.loc 1 173 3 view .LVU1
 174:Core/Src/main.c **** 
 175:Core/Src/main.c ****   RCC->CSR |= RCC_CSR_LSION;
  32              		.loc 1 175 3 view .LVU2
  33              		.loc 1 175 6 is_stmt 0 view .LVU3
  34 0000 124A     		ldr	r2, .L5
  35 0002 536A     		ldr	r3, [r2, #36]
  36              		.loc 1 175 12 view .LVU4
  37 0004 43F00103 		orr	r3, r3, #1
  38 0008 5362     		str	r3, [r2, #36]
 176:Core/Src/main.c ****   while ((RCC->CSR & RCC_CSR_LSIRDY) == 0U)
  39              		.loc 1 176 3 is_stmt 1 view .LVU5
  40              	.L2:
 177:Core/Src/main.c ****   {
 178:Core/Src/main.c ****   }
  41              		.loc 1 178 3 view .LVU6
 176:Core/Src/main.c ****   while ((RCC->CSR & RCC_CSR_LSIRDY) == 0U)
  42              		.loc 1 176 38 discriminator 1 view .LVU7
 176:Core/Src/main.c ****   while ((RCC->CSR & RCC_CSR_LSIRDY) == 0U)
  43              		.loc 1 176 14 is_stmt 0 discriminator 1 view .LVU8
  44 000a 104B     		ldr	r3, .L5
  45 000c 5B6A     		ldr	r3, [r3, #36]
 176:Core/Src/main.c ****   while ((RCC->CSR & RCC_CSR_LSIRDY) == 0U)
  46              		.loc 1 176 38 discriminator 1 view .LVU9
  47 000e 13F0020F 		tst	r3, #2
  48 0012 FAD0     		beq	.L2
ARM GAS  C:\Users\PC\AppData\Local\Temp\ccQwx6G1.s 			page 5


 179:Core/Src/main.c **** 
 180:Core/Src/main.c ****   reload = ((APP_WATCHDOG_TIMEOUT_MS * (APP_WATCHDOG_LSI_HZ / 1000U)) / APP_WATCHDOG_PRESCALER);
  49              		.loc 1 180 3 is_stmt 1 view .LVU10
  50              	.LVL0:
 181:Core/Src/main.c ****   if (reload > 0U)
  51              		.loc 1 181 3 view .LVU11
 182:Core/Src/main.c ****   {
 183:Core/Src/main.c ****     --reload;
  52              		.loc 1 183 5 view .LVU12
 184:Core/Src/main.c ****   }
 185:Core/Src/main.c ****   if (reload > 0x0FFFU)
  53              		.loc 1 185 3 view .LVU13
 186:Core/Src/main.c ****   {
 187:Core/Src/main.c ****     reload = 0x0FFFU;
 188:Core/Src/main.c ****   }
 189:Core/Src/main.c **** 
 190:Core/Src/main.c ****   IWDG->KR = 0x5555U;
  54              		.loc 1 190 3 view .LVU14
  55              		.loc 1 190 12 is_stmt 0 view .LVU15
  56 0014 0E4B     		ldr	r3, .L5+4
  57 0016 45F25552 		movw	r2, #21845
  58 001a 1A60     		str	r2, [r3]
 191:Core/Src/main.c ****   while ((IWDG->SR & IWDG_SR_PVU) != 0U)
  59              		.loc 1 191 3 is_stmt 1 view .LVU16
  60              	.L3:
 192:Core/Src/main.c ****   {
 193:Core/Src/main.c ****   }
  61              		.loc 1 193 3 view .LVU17
 191:Core/Src/main.c ****   while ((IWDG->SR & IWDG_SR_PVU) != 0U)
  62              		.loc 1 191 35 discriminator 1 view .LVU18
 191:Core/Src/main.c ****   while ((IWDG->SR & IWDG_SR_PVU) != 0U)
  63              		.loc 1 191 15 is_stmt 0 discriminator 1 view .LVU19
  64 001c 0C4B     		ldr	r3, .L5+4
  65 001e DB68     		ldr	r3, [r3, #12]
 191:Core/Src/main.c ****   while ((IWDG->SR & IWDG_SR_PVU) != 0U)
  66              		.loc 1 191 35 discriminator 1 view .LVU20
  67 0020 13F0010F 		tst	r3, #1
  68 0024 FAD1     		bne	.L3
 194:Core/Src/main.c ****   IWDG->PR = APP_WATCHDOG_PR_BITS;
  69              		.loc 1 194 3 is_stmt 1 view .LVU21
  70              		.loc 1 194 12 is_stmt 0 view .LVU22
  71 0026 0A4B     		ldr	r3, .L5+4
  72 0028 0422     		movs	r2, #4
  73 002a 5A60     		str	r2, [r3, #4]
 195:Core/Src/main.c ****   while ((IWDG->SR & IWDG_SR_RVU) != 0U)
  74              		.loc 1 195 3 is_stmt 1 view .LVU23
  75              	.L4:
 196:Core/Src/main.c ****   {
 197:Core/Src/main.c ****   }
  76              		.loc 1 197 3 view .LVU24
 195:Core/Src/main.c ****   while ((IWDG->SR & IWDG_SR_RVU) != 0U)
  77              		.loc 1 195 35 discriminator 1 view .LVU25
 195:Core/Src/main.c ****   while ((IWDG->SR & IWDG_SR_RVU) != 0U)
  78              		.loc 1 195 15 is_stmt 0 discriminator 1 view .LVU26
  79 002c 084B     		ldr	r3, .L5+4
  80 002e DB68     		ldr	r3, [r3, #12]
 195:Core/Src/main.c ****   while ((IWDG->SR & IWDG_SR_RVU) != 0U)
ARM GAS  C:\Users\PC\AppData\Local\Temp\ccQwx6G1.s 			page 6


  81              		.loc 1 195 35 discriminator 1 view .LVU27
  82 0030 13F0020F 		tst	r3, #2
  83 0034 FAD1     		bne	.L4
 198:Core/Src/main.c ****   IWDG->RLR = reload;
  84              		.loc 1 198 3 is_stmt 1 view .LVU28
  85              		.loc 1 198 13 is_stmt 0 view .LVU29
  86 0036 064B     		ldr	r3, .L5+4
  87 0038 40F2E142 		movw	r2, #1249
  88 003c 9A60     		str	r2, [r3, #8]
 199:Core/Src/main.c ****   IWDG->KR = 0xAAAAU;
  89              		.loc 1 199 3 is_stmt 1 view .LVU30
  90              		.loc 1 199 12 is_stmt 0 view .LVU31
  91 003e 4AF6AA22 		movw	r2, #43690
  92 0042 1A60     		str	r2, [r3]
 200:Core/Src/main.c ****   IWDG->KR = 0xCCCCU;
  93              		.loc 1 200 3 is_stmt 1 view .LVU32
  94              		.loc 1 200 12 is_stmt 0 view .LVU33
  95 0044 4CF6CC42 		movw	r2, #52428
  96 0048 1A60     		str	r2, [r3]
 201:Core/Src/main.c **** }
  97              		.loc 1 201 1 view .LVU34
  98 004a 7047     		bx	lr
  99              	.L6:
 100              		.align	2
 101              	.L5:
 102 004c 00100240 		.word	1073876992
 103 0050 00300040 		.word	1073754112
 104              		.cfi_endproc
 105              	.LFE71:
 107              		.section	.text.AppWatchdog_Refresh,"ax",%progbits
 108              		.align	1
 109              		.syntax unified
 110              		.thumb
 111              		.thumb_func
 113              	AppWatchdog_Refresh:
 114              	.LFB72:
 202:Core/Src/main.c **** 
 203:Core/Src/main.c **** static void AppWatchdog_Refresh(void)
 204:Core/Src/main.c **** {
 115              		.loc 1 204 1 is_stmt 1 view -0
 116              		.cfi_startproc
 117              		@ args = 0, pretend = 0, frame = 0
 118              		@ frame_needed = 0, uses_anonymous_args = 0
 119              		@ link register save eliminated.
 205:Core/Src/main.c ****   IWDG->KR = 0xAAAAU;
 120              		.loc 1 205 3 view .LVU36
 121              		.loc 1 205 12 is_stmt 0 view .LVU37
 122 0000 024B     		ldr	r3, .L8
 123 0002 4AF6AA22 		movw	r2, #43690
 124 0006 1A60     		str	r2, [r3]
 206:Core/Src/main.c **** }
 125              		.loc 1 206 1 view .LVU38
 126 0008 7047     		bx	lr
 127              	.L9:
 128 000a 00BF     		.align	2
 129              	.L8:
 130 000c 00300040 		.word	1073754112
ARM GAS  C:\Users\PC\AppData\Local\Temp\ccQwx6G1.s 			page 7


 131              		.cfi_endproc
 132              	.LFE72:
 134              		.section	.text.MX_GPIO_Init,"ax",%progbits
 135              		.align	1
 136              		.syntax unified
 137              		.thumb
 138              		.thumb_func
 140              	MX_GPIO_Init:
 141              	.LFB70:
 137:Core/Src/main.c ****   GPIO_InitTypeDef GPIO_InitStruct = {0};
 142              		.loc 1 137 1 is_stmt 1 view -0
 143              		.cfi_startproc
 144              		@ args = 0, pretend = 0, frame = 32
 145              		@ frame_needed = 0, uses_anonymous_args = 0
 146 0000 2DE9F047 		push	{r4, r5, r6, r7, r8, r9, r10, lr}
 147              	.LCFI0:
 148              		.cfi_def_cfa_offset 32
 149              		.cfi_offset 4, -32
 150              		.cfi_offset 5, -28
 151              		.cfi_offset 6, -24
 152              		.cfi_offset 7, -20
 153              		.cfi_offset 8, -16
 154              		.cfi_offset 9, -12
 155              		.cfi_offset 10, -8
 156              		.cfi_offset 14, -4
 157 0004 88B0     		sub	sp, sp, #32
 158              	.LCFI1:
 159              		.cfi_def_cfa_offset 64
 138:Core/Src/main.c **** 
 160              		.loc 1 138 3 view .LVU40
 138:Core/Src/main.c **** 
 161              		.loc 1 138 20 is_stmt 0 view .LVU41
 162 0006 04AD     		add	r5, sp, #16
 163 0008 0024     		movs	r4, #0
 164 000a 0494     		str	r4, [sp, #16]
 165 000c 0594     		str	r4, [sp, #20]
 166 000e 0694     		str	r4, [sp, #24]
 167 0010 0794     		str	r4, [sp, #28]
 140:Core/Src/main.c ****   __HAL_RCC_GPIOD_CLK_ENABLE();
 168              		.loc 1 140 3 is_stmt 1 view .LVU42
 169              	.LBB4:
 140:Core/Src/main.c ****   __HAL_RCC_GPIOD_CLK_ENABLE();
 170              		.loc 1 140 3 view .LVU43
 140:Core/Src/main.c ****   __HAL_RCC_GPIOD_CLK_ENABLE();
 171              		.loc 1 140 3 view .LVU44
 172 0012 384B     		ldr	r3, .L12
 173 0014 9A69     		ldr	r2, [r3, #24]
 174 0016 42F01002 		orr	r2, r2, #16
 175 001a 9A61     		str	r2, [r3, #24]
 140:Core/Src/main.c ****   __HAL_RCC_GPIOD_CLK_ENABLE();
 176              		.loc 1 140 3 view .LVU45
 177 001c 9A69     		ldr	r2, [r3, #24]
 178 001e 02F01002 		and	r2, r2, #16
 179 0022 0092     		str	r2, [sp]
 140:Core/Src/main.c ****   __HAL_RCC_GPIOD_CLK_ENABLE();
 180              		.loc 1 140 3 view .LVU46
 181 0024 009A     		ldr	r2, [sp]
ARM GAS  C:\Users\PC\AppData\Local\Temp\ccQwx6G1.s 			page 8


 182              	.LBE4:
 140:Core/Src/main.c ****   __HAL_RCC_GPIOD_CLK_ENABLE();
 183              		.loc 1 140 3 view .LVU47
 141:Core/Src/main.c ****   __HAL_RCC_GPIOA_CLK_ENABLE();
 184              		.loc 1 141 3 view .LVU48
 185              	.LBB5:
 141:Core/Src/main.c ****   __HAL_RCC_GPIOA_CLK_ENABLE();
 186              		.loc 1 141 3 view .LVU49
 141:Core/Src/main.c ****   __HAL_RCC_GPIOA_CLK_ENABLE();
 187              		.loc 1 141 3 view .LVU50
 188 0026 9A69     		ldr	r2, [r3, #24]
 189 0028 42F02002 		orr	r2, r2, #32
 190 002c 9A61     		str	r2, [r3, #24]
 141:Core/Src/main.c ****   __HAL_RCC_GPIOA_CLK_ENABLE();
 191              		.loc 1 141 3 view .LVU51
 192 002e 9A69     		ldr	r2, [r3, #24]
 193 0030 02F02002 		and	r2, r2, #32
 194 0034 0192     		str	r2, [sp, #4]
 141:Core/Src/main.c ****   __HAL_RCC_GPIOA_CLK_ENABLE();
 195              		.loc 1 141 3 view .LVU52
 196 0036 019A     		ldr	r2, [sp, #4]
 197              	.LBE5:
 141:Core/Src/main.c ****   __HAL_RCC_GPIOA_CLK_ENABLE();
 198              		.loc 1 141 3 view .LVU53
 142:Core/Src/main.c ****   __HAL_RCC_GPIOB_CLK_ENABLE();
 199              		.loc 1 142 3 view .LVU54
 200              	.LBB6:
 142:Core/Src/main.c ****   __HAL_RCC_GPIOB_CLK_ENABLE();
 201              		.loc 1 142 3 view .LVU55
 142:Core/Src/main.c ****   __HAL_RCC_GPIOB_CLK_ENABLE();
 202              		.loc 1 142 3 view .LVU56
 203 0038 9A69     		ldr	r2, [r3, #24]
 204 003a 42F00402 		orr	r2, r2, #4
 205 003e 9A61     		str	r2, [r3, #24]
 142:Core/Src/main.c ****   __HAL_RCC_GPIOB_CLK_ENABLE();
 206              		.loc 1 142 3 view .LVU57
 207 0040 9A69     		ldr	r2, [r3, #24]
 208 0042 02F00402 		and	r2, r2, #4
 209 0046 0292     		str	r2, [sp, #8]
 142:Core/Src/main.c ****   __HAL_RCC_GPIOB_CLK_ENABLE();
 210              		.loc 1 142 3 view .LVU58
 211 0048 029A     		ldr	r2, [sp, #8]
 212              	.LBE6:
 142:Core/Src/main.c ****   __HAL_RCC_GPIOB_CLK_ENABLE();
 213              		.loc 1 142 3 view .LVU59
 143:Core/Src/main.c **** 
 214              		.loc 1 143 3 view .LVU60
 215              	.LBB7:
 143:Core/Src/main.c **** 
 216              		.loc 1 143 3 view .LVU61
 143:Core/Src/main.c **** 
 217              		.loc 1 143 3 view .LVU62
 218 004a 9A69     		ldr	r2, [r3, #24]
 219 004c 42F00802 		orr	r2, r2, #8
 220 0050 9A61     		str	r2, [r3, #24]
 143:Core/Src/main.c **** 
 221              		.loc 1 143 3 view .LVU63
ARM GAS  C:\Users\PC\AppData\Local\Temp\ccQwx6G1.s 			page 9


 222 0052 9B69     		ldr	r3, [r3, #24]
 223 0054 03F00803 		and	r3, r3, #8
 224 0058 0393     		str	r3, [sp, #12]
 143:Core/Src/main.c **** 
 225              		.loc 1 143 3 view .LVU64
 226 005a 039B     		ldr	r3, [sp, #12]
 227              	.LBE7:
 143:Core/Src/main.c **** 
 228              		.loc 1 143 3 view .LVU65
 145:Core/Src/main.c ****   HAL_GPIO_WritePin(RADIO_M0_GPIO_Port, RADIO_M0_Pin, GPIO_PIN_RESET);
 229              		.loc 1 145 3 view .LVU66
 230 005c DFF898A0 		ldr	r10, .L12+4
 231 0060 0122     		movs	r2, #1
 232 0062 4FF40051 		mov	r1, #8192
 233 0066 5046     		mov	r0, r10
 234 0068 FFF7FEFF 		bl	HAL_GPIO_WritePin
 235              	.LVL1:
 146:Core/Src/main.c ****   HAL_GPIO_WritePin(RADIO_M1_GPIO_Port, RADIO_M1_Pin, GPIO_PIN_RESET);
 236              		.loc 1 146 3 view .LVU67
 237 006c 234F     		ldr	r7, .L12+8
 238 006e 2246     		mov	r2, r4
 239 0070 4FF48041 		mov	r1, #16384
 240 0074 3846     		mov	r0, r7
 241 0076 FFF7FEFF 		bl	HAL_GPIO_WritePin
 242              	.LVL2:
 147:Core/Src/main.c ****   HAL_GPIO_WritePin(RADIO_M2_GPIO_Port, RADIO_M2_Pin, GPIO_PIN_RESET);
 243              		.loc 1 147 3 view .LVU68
 244 007a 2246     		mov	r2, r4
 245 007c 4FF40041 		mov	r1, #32768
 246 0080 3846     		mov	r0, r7
 247 0082 FFF7FEFF 		bl	HAL_GPIO_WritePin
 248              	.LVL3:
 148:Core/Src/main.c **** 
 249              		.loc 1 148 3 view .LVU69
 250 0086 1E4E     		ldr	r6, .L12+12
 251 0088 2246     		mov	r2, r4
 252 008a 4FF48071 		mov	r1, #256
 253 008e 3046     		mov	r0, r6
 254 0090 FFF7FEFF 		bl	HAL_GPIO_WritePin
 255              	.LVL4:
 150:Core/Src/main.c ****   GPIO_InitStruct.Mode = GPIO_MODE_OUTPUT_PP;
 256              		.loc 1 150 3 view .LVU70
 150:Core/Src/main.c ****   GPIO_InitStruct.Mode = GPIO_MODE_OUTPUT_PP;
 257              		.loc 1 150 23 is_stmt 0 view .LVU71
 258 0094 4FF40053 		mov	r3, #8192
 259 0098 0493     		str	r3, [sp, #16]
 151:Core/Src/main.c ****   GPIO_InitStruct.Pull = GPIO_NOPULL;
 260              		.loc 1 151 3 is_stmt 1 view .LVU72
 151:Core/Src/main.c ****   GPIO_InitStruct.Pull = GPIO_NOPULL;
 261              		.loc 1 151 24 is_stmt 0 view .LVU73
 262 009a 4FF00109 		mov	r9, #1
 263 009e CDF81490 		str	r9, [sp, #20]
 152:Core/Src/main.c ****   GPIO_InitStruct.Speed = GPIO_SPEED_FREQ_LOW;
 264              		.loc 1 152 3 is_stmt 1 view .LVU74
 152:Core/Src/main.c ****   GPIO_InitStruct.Speed = GPIO_SPEED_FREQ_LOW;
 265              		.loc 1 152 24 is_stmt 0 view .LVU75
 266 00a2 0694     		str	r4, [sp, #24]
ARM GAS  C:\Users\PC\AppData\Local\Temp\ccQwx6G1.s 			page 10


 153:Core/Src/main.c ****   HAL_GPIO_Init(LED_SYS_GPIO_Port, &GPIO_InitStruct);
 267              		.loc 1 153 3 is_stmt 1 view .LVU76
 153:Core/Src/main.c ****   HAL_GPIO_Init(LED_SYS_GPIO_Port, &GPIO_InitStruct);
 268              		.loc 1 153 25 is_stmt 0 view .LVU77
 269 00a4 4FF00208 		mov	r8, #2
 270 00a8 CDF81C80 		str	r8, [sp, #28]
 154:Core/Src/main.c **** 
 271              		.loc 1 154 3 is_stmt 1 view .LVU78
 272 00ac 2946     		mov	r1, r5
 273 00ae 5046     		mov	r0, r10
 274 00b0 FFF7FEFF 		bl	HAL_GPIO_Init
 275              	.LVL5:
 156:Core/Src/main.c ****   GPIO_InitStruct.Mode = GPIO_MODE_OUTPUT_PP;
 276              		.loc 1 156 3 view .LVU79
 156:Core/Src/main.c ****   GPIO_InitStruct.Mode = GPIO_MODE_OUTPUT_PP;
 277              		.loc 1 156 23 is_stmt 0 view .LVU80
 278 00b4 4FF44043 		mov	r3, #49152
 279 00b8 0493     		str	r3, [sp, #16]
 157:Core/Src/main.c ****   GPIO_InitStruct.Pull = GPIO_NOPULL;
 280              		.loc 1 157 3 is_stmt 1 view .LVU81
 157:Core/Src/main.c ****   GPIO_InitStruct.Pull = GPIO_NOPULL;
 281              		.loc 1 157 24 is_stmt 0 view .LVU82
 282 00ba CDF81490 		str	r9, [sp, #20]
 158:Core/Src/main.c ****   GPIO_InitStruct.Speed = GPIO_SPEED_FREQ_LOW;
 283              		.loc 1 158 3 is_stmt 1 view .LVU83
 158:Core/Src/main.c ****   GPIO_InitStruct.Speed = GPIO_SPEED_FREQ_LOW;
 284              		.loc 1 158 24 is_stmt 0 view .LVU84
 285 00be 0694     		str	r4, [sp, #24]
 159:Core/Src/main.c ****   HAL_GPIO_Init(GPIOB, &GPIO_InitStruct);
 286              		.loc 1 159 3 is_stmt 1 view .LVU85
 159:Core/Src/main.c ****   HAL_GPIO_Init(GPIOB, &GPIO_InitStruct);
 287              		.loc 1 159 25 is_stmt 0 view .LVU86
 288 00c0 CDF81C80 		str	r8, [sp, #28]
 160:Core/Src/main.c **** 
 289              		.loc 1 160 3 is_stmt 1 view .LVU87
 290 00c4 2946     		mov	r1, r5
 291 00c6 3846     		mov	r0, r7
 292 00c8 FFF7FEFF 		bl	HAL_GPIO_Init
 293              	.LVL6:
 162:Core/Src/main.c ****   HAL_GPIO_Init(RADIO_M2_GPIO_Port, &GPIO_InitStruct);
 294              		.loc 1 162 3 view .LVU88
 162:Core/Src/main.c ****   HAL_GPIO_Init(RADIO_M2_GPIO_Port, &GPIO_InitStruct);
 295              		.loc 1 162 23 is_stmt 0 view .LVU89
 296 00cc 4FF48073 		mov	r3, #256
 297 00d0 0493     		str	r3, [sp, #16]
 163:Core/Src/main.c **** 
 298              		.loc 1 163 3 is_stmt 1 view .LVU90
 299 00d2 2946     		mov	r1, r5
 300 00d4 3046     		mov	r0, r6
 301 00d6 FFF7FEFF 		bl	HAL_GPIO_Init
 302              	.LVL7:
 165:Core/Src/main.c ****   GPIO_InitStruct.Mode = GPIO_MODE_INPUT;
 303              		.loc 1 165 3 view .LVU91
 165:Core/Src/main.c ****   GPIO_InitStruct.Mode = GPIO_MODE_INPUT;
 304              		.loc 1 165 23 is_stmt 0 view .LVU92
 305 00da 4FF40063 		mov	r3, #2048
 306 00de 0493     		str	r3, [sp, #16]
ARM GAS  C:\Users\PC\AppData\Local\Temp\ccQwx6G1.s 			page 11


 166:Core/Src/main.c ****   GPIO_InitStruct.Pull = GPIO_NOPULL;
 307              		.loc 1 166 3 is_stmt 1 view .LVU93
 166:Core/Src/main.c ****   GPIO_InitStruct.Pull = GPIO_NOPULL;
 308              		.loc 1 166 24 is_stmt 0 view .LVU94
 309 00e0 0594     		str	r4, [sp, #20]
 167:Core/Src/main.c ****   HAL_GPIO_Init(RADIO_AUX_GPIO_Port, &GPIO_InitStruct);
 310              		.loc 1 167 3 is_stmt 1 view .LVU95
 167:Core/Src/main.c ****   HAL_GPIO_Init(RADIO_AUX_GPIO_Port, &GPIO_InitStruct);
 311              		.loc 1 167 24 is_stmt 0 view .LVU96
 312 00e2 0694     		str	r4, [sp, #24]
 168:Core/Src/main.c **** }
 313              		.loc 1 168 3 is_stmt 1 view .LVU97
 314 00e4 2946     		mov	r1, r5
 315 00e6 3046     		mov	r0, r6
 316 00e8 FFF7FEFF 		bl	HAL_GPIO_Init
 317              	.LVL8:
 169:Core/Src/main.c **** 
 318              		.loc 1 169 1 is_stmt 0 view .LVU98
 319 00ec 08B0     		add	sp, sp, #32
 320              	.LCFI2:
 321              		.cfi_def_cfa_offset 32
 322              		@ sp needed
 323 00ee BDE8F087 		pop	{r4, r5, r6, r7, r8, r9, r10, pc}
 324              	.L13:
 325 00f2 00BF     		.align	2
 326              	.L12:
 327 00f4 00100240 		.word	1073876992
 328 00f8 00100140 		.word	1073811456
 329 00fc 000C0140 		.word	1073810432
 330 0100 00080140 		.word	1073809408
 331              		.cfi_endproc
 332              	.LFE70:
 334              		.section	.text.Error_Handler,"ax",%progbits
 335              		.align	1
 336              		.global	Error_Handler
 337              		.syntax unified
 338              		.thumb
 339              		.thumb_func
 341              	Error_Handler:
 342              	.LFB73:
 207:Core/Src/main.c **** 
 208:Core/Src/main.c **** void Error_Handler(void)
 209:Core/Src/main.c **** {
 343              		.loc 1 209 1 is_stmt 1 view -0
 344              		.cfi_startproc
 345              		@ Volatile: function does not return.
 346              		@ args = 0, pretend = 0, frame = 0
 347              		@ frame_needed = 0, uses_anonymous_args = 0
 348              		@ link register save eliminated.
 210:Core/Src/main.c ****   __disable_irq();
 349              		.loc 1 210 3 view .LVU100
 350              	.LBB8:
 351              	.LBI8:
 352              		.file 2 "../Drivers/CMSIS/Include/cmsis_gcc.h"
   1:../Drivers/CMSIS/Include/cmsis_gcc.h **** /**************************************************************************//**
   2:../Drivers/CMSIS/Include/cmsis_gcc.h ****  * @file     cmsis_gcc.h
   3:../Drivers/CMSIS/Include/cmsis_gcc.h ****  * @brief    CMSIS compiler GCC header file
ARM GAS  C:\Users\PC\AppData\Local\Temp\ccQwx6G1.s 			page 12


   4:../Drivers/CMSIS/Include/cmsis_gcc.h ****  * @version  V5.0.4
   5:../Drivers/CMSIS/Include/cmsis_gcc.h ****  * @date     09. April 2018
   6:../Drivers/CMSIS/Include/cmsis_gcc.h ****  ******************************************************************************/
   7:../Drivers/CMSIS/Include/cmsis_gcc.h **** /*
   8:../Drivers/CMSIS/Include/cmsis_gcc.h ****  * Copyright (c) 2009-2018 Arm Limited. All rights reserved.
   9:../Drivers/CMSIS/Include/cmsis_gcc.h ****  *
  10:../Drivers/CMSIS/Include/cmsis_gcc.h ****  * SPDX-License-Identifier: Apache-2.0
  11:../Drivers/CMSIS/Include/cmsis_gcc.h ****  *
  12:../Drivers/CMSIS/Include/cmsis_gcc.h ****  * Licensed under the Apache License, Version 2.0 (the License); you may
  13:../Drivers/CMSIS/Include/cmsis_gcc.h ****  * not use this file except in compliance with the License.
  14:../Drivers/CMSIS/Include/cmsis_gcc.h ****  * You may obtain a copy of the License at
  15:../Drivers/CMSIS/Include/cmsis_gcc.h ****  *
  16:../Drivers/CMSIS/Include/cmsis_gcc.h ****  * www.apache.org/licenses/LICENSE-2.0
  17:../Drivers/CMSIS/Include/cmsis_gcc.h ****  *
  18:../Drivers/CMSIS/Include/cmsis_gcc.h ****  * Unless required by applicable law or agreed to in writing, software
  19:../Drivers/CMSIS/Include/cmsis_gcc.h ****  * distributed under the License is distributed on an AS IS BASIS, WITHOUT
  20:../Drivers/CMSIS/Include/cmsis_gcc.h ****  * WARRANTIES OR CONDITIONS OF ANY KIND, either express or implied.
  21:../Drivers/CMSIS/Include/cmsis_gcc.h ****  * See the License for the specific language governing permissions and
  22:../Drivers/CMSIS/Include/cmsis_gcc.h ****  * limitations under the License.
  23:../Drivers/CMSIS/Include/cmsis_gcc.h ****  */
  24:../Drivers/CMSIS/Include/cmsis_gcc.h **** 
  25:../Drivers/CMSIS/Include/cmsis_gcc.h **** #ifndef __CMSIS_GCC_H
  26:../Drivers/CMSIS/Include/cmsis_gcc.h **** #define __CMSIS_GCC_H
  27:../Drivers/CMSIS/Include/cmsis_gcc.h **** 
  28:../Drivers/CMSIS/Include/cmsis_gcc.h **** /* ignore some GCC warnings */
  29:../Drivers/CMSIS/Include/cmsis_gcc.h **** #pragma GCC diagnostic push
  30:../Drivers/CMSIS/Include/cmsis_gcc.h **** #pragma GCC diagnostic ignored "-Wsign-conversion"
  31:../Drivers/CMSIS/Include/cmsis_gcc.h **** #pragma GCC diagnostic ignored "-Wconversion"
  32:../Drivers/CMSIS/Include/cmsis_gcc.h **** #pragma GCC diagnostic ignored "-Wunused-parameter"
  33:../Drivers/CMSIS/Include/cmsis_gcc.h **** 
  34:../Drivers/CMSIS/Include/cmsis_gcc.h **** /* Fallback for __has_builtin */
  35:../Drivers/CMSIS/Include/cmsis_gcc.h **** #ifndef __has_builtin
  36:../Drivers/CMSIS/Include/cmsis_gcc.h ****   #define __has_builtin(x) (0)
  37:../Drivers/CMSIS/Include/cmsis_gcc.h **** #endif
  38:../Drivers/CMSIS/Include/cmsis_gcc.h **** 
  39:../Drivers/CMSIS/Include/cmsis_gcc.h **** /* CMSIS compiler specific defines */
  40:../Drivers/CMSIS/Include/cmsis_gcc.h **** #ifndef   __ASM
  41:../Drivers/CMSIS/Include/cmsis_gcc.h ****   #define __ASM                                  __asm
  42:../Drivers/CMSIS/Include/cmsis_gcc.h **** #endif
  43:../Drivers/CMSIS/Include/cmsis_gcc.h **** #ifndef   __INLINE
  44:../Drivers/CMSIS/Include/cmsis_gcc.h ****   #define __INLINE                               inline
  45:../Drivers/CMSIS/Include/cmsis_gcc.h **** #endif
  46:../Drivers/CMSIS/Include/cmsis_gcc.h **** #ifndef   __STATIC_INLINE
  47:../Drivers/CMSIS/Include/cmsis_gcc.h ****   #define __STATIC_INLINE                        static inline
  48:../Drivers/CMSIS/Include/cmsis_gcc.h **** #endif
  49:../Drivers/CMSIS/Include/cmsis_gcc.h **** #ifndef   __STATIC_FORCEINLINE                 
  50:../Drivers/CMSIS/Include/cmsis_gcc.h ****   #define __STATIC_FORCEINLINE                   __attribute__((always_inline)) static inline
  51:../Drivers/CMSIS/Include/cmsis_gcc.h **** #endif                                           
  52:../Drivers/CMSIS/Include/cmsis_gcc.h **** #ifndef   __NO_RETURN
  53:../Drivers/CMSIS/Include/cmsis_gcc.h ****   #define __NO_RETURN                            __attribute__((__noreturn__))
  54:../Drivers/CMSIS/Include/cmsis_gcc.h **** #endif
  55:../Drivers/CMSIS/Include/cmsis_gcc.h **** #ifndef   __USED
  56:../Drivers/CMSIS/Include/cmsis_gcc.h ****   #define __USED                                 __attribute__((used))
  57:../Drivers/CMSIS/Include/cmsis_gcc.h **** #endif
  58:../Drivers/CMSIS/Include/cmsis_gcc.h **** #ifndef   __WEAK
  59:../Drivers/CMSIS/Include/cmsis_gcc.h ****   #define __WEAK                                 __attribute__((weak))
  60:../Drivers/CMSIS/Include/cmsis_gcc.h **** #endif
ARM GAS  C:\Users\PC\AppData\Local\Temp\ccQwx6G1.s 			page 13


  61:../Drivers/CMSIS/Include/cmsis_gcc.h **** #ifndef   __PACKED
  62:../Drivers/CMSIS/Include/cmsis_gcc.h ****   #define __PACKED                               __attribute__((packed, aligned(1)))
  63:../Drivers/CMSIS/Include/cmsis_gcc.h **** #endif
  64:../Drivers/CMSIS/Include/cmsis_gcc.h **** #ifndef   __PACKED_STRUCT
  65:../Drivers/CMSIS/Include/cmsis_gcc.h ****   #define __PACKED_STRUCT                        struct __attribute__((packed, aligned(1)))
  66:../Drivers/CMSIS/Include/cmsis_gcc.h **** #endif
  67:../Drivers/CMSIS/Include/cmsis_gcc.h **** #ifndef   __PACKED_UNION
  68:../Drivers/CMSIS/Include/cmsis_gcc.h ****   #define __PACKED_UNION                         union __attribute__((packed, aligned(1)))
  69:../Drivers/CMSIS/Include/cmsis_gcc.h **** #endif
  70:../Drivers/CMSIS/Include/cmsis_gcc.h **** #ifndef   __UNALIGNED_UINT32        /* deprecated */
  71:../Drivers/CMSIS/Include/cmsis_gcc.h ****   #pragma GCC diagnostic push
  72:../Drivers/CMSIS/Include/cmsis_gcc.h ****   #pragma GCC diagnostic ignored "-Wpacked"
  73:../Drivers/CMSIS/Include/cmsis_gcc.h ****   #pragma GCC diagnostic ignored "-Wattributes"
  74:../Drivers/CMSIS/Include/cmsis_gcc.h ****   struct __attribute__((packed)) T_UINT32 { uint32_t v; };
  75:../Drivers/CMSIS/Include/cmsis_gcc.h ****   #pragma GCC diagnostic pop
  76:../Drivers/CMSIS/Include/cmsis_gcc.h ****   #define __UNALIGNED_UINT32(x)                  (((struct T_UINT32 *)(x))->v)
  77:../Drivers/CMSIS/Include/cmsis_gcc.h **** #endif
  78:../Drivers/CMSIS/Include/cmsis_gcc.h **** #ifndef   __UNALIGNED_UINT16_WRITE
  79:../Drivers/CMSIS/Include/cmsis_gcc.h ****   #pragma GCC diagnostic push
  80:../Drivers/CMSIS/Include/cmsis_gcc.h ****   #pragma GCC diagnostic ignored "-Wpacked"
  81:../Drivers/CMSIS/Include/cmsis_gcc.h ****   #pragma GCC diagnostic ignored "-Wattributes"
  82:../Drivers/CMSIS/Include/cmsis_gcc.h ****   __PACKED_STRUCT T_UINT16_WRITE { uint16_t v; };
  83:../Drivers/CMSIS/Include/cmsis_gcc.h ****   #pragma GCC diagnostic pop
  84:../Drivers/CMSIS/Include/cmsis_gcc.h ****   #define __UNALIGNED_UINT16_WRITE(addr, val)    (void)((((struct T_UINT16_WRITE *)(void *)(addr))-
  85:../Drivers/CMSIS/Include/cmsis_gcc.h **** #endif
  86:../Drivers/CMSIS/Include/cmsis_gcc.h **** #ifndef   __UNALIGNED_UINT16_READ
  87:../Drivers/CMSIS/Include/cmsis_gcc.h ****   #pragma GCC diagnostic push
  88:../Drivers/CMSIS/Include/cmsis_gcc.h ****   #pragma GCC diagnostic ignored "-Wpacked"
  89:../Drivers/CMSIS/Include/cmsis_gcc.h ****   #pragma GCC diagnostic ignored "-Wattributes"
  90:../Drivers/CMSIS/Include/cmsis_gcc.h ****   __PACKED_STRUCT T_UINT16_READ { uint16_t v; };
  91:../Drivers/CMSIS/Include/cmsis_gcc.h ****   #pragma GCC diagnostic pop
  92:../Drivers/CMSIS/Include/cmsis_gcc.h ****   #define __UNALIGNED_UINT16_READ(addr)          (((const struct T_UINT16_READ *)(const void *)(add
  93:../Drivers/CMSIS/Include/cmsis_gcc.h **** #endif
  94:../Drivers/CMSIS/Include/cmsis_gcc.h **** #ifndef   __UNALIGNED_UINT32_WRITE
  95:../Drivers/CMSIS/Include/cmsis_gcc.h ****   #pragma GCC diagnostic push
  96:../Drivers/CMSIS/Include/cmsis_gcc.h ****   #pragma GCC diagnostic ignored "-Wpacked"
  97:../Drivers/CMSIS/Include/cmsis_gcc.h ****   #pragma GCC diagnostic ignored "-Wattributes"
  98:../Drivers/CMSIS/Include/cmsis_gcc.h ****   __PACKED_STRUCT T_UINT32_WRITE { uint32_t v; };
  99:../Drivers/CMSIS/Include/cmsis_gcc.h ****   #pragma GCC diagnostic pop
 100:../Drivers/CMSIS/Include/cmsis_gcc.h ****   #define __UNALIGNED_UINT32_WRITE(addr, val)    (void)((((struct T_UINT32_WRITE *)(void *)(addr))-
 101:../Drivers/CMSIS/Include/cmsis_gcc.h **** #endif
 102:../Drivers/CMSIS/Include/cmsis_gcc.h **** #ifndef   __UNALIGNED_UINT32_READ
 103:../Drivers/CMSIS/Include/cmsis_gcc.h ****   #pragma GCC diagnostic push
 104:../Drivers/CMSIS/Include/cmsis_gcc.h ****   #pragma GCC diagnostic ignored "-Wpacked"
 105:../Drivers/CMSIS/Include/cmsis_gcc.h ****   #pragma GCC diagnostic ignored "-Wattributes"
 106:../Drivers/CMSIS/Include/cmsis_gcc.h ****   __PACKED_STRUCT T_UINT32_READ { uint32_t v; };
 107:../Drivers/CMSIS/Include/cmsis_gcc.h ****   #pragma GCC diagnostic pop
 108:../Drivers/CMSIS/Include/cmsis_gcc.h ****   #define __UNALIGNED_UINT32_READ(addr)          (((const struct T_UINT32_READ *)(const void *)(add
 109:../Drivers/CMSIS/Include/cmsis_gcc.h **** #endif
 110:../Drivers/CMSIS/Include/cmsis_gcc.h **** #ifndef   __ALIGNED
 111:../Drivers/CMSIS/Include/cmsis_gcc.h ****   #define __ALIGNED(x)                           __attribute__((aligned(x)))
 112:../Drivers/CMSIS/Include/cmsis_gcc.h **** #endif
 113:../Drivers/CMSIS/Include/cmsis_gcc.h **** #ifndef   __RESTRICT
 114:../Drivers/CMSIS/Include/cmsis_gcc.h ****   #define __RESTRICT                             __restrict
 115:../Drivers/CMSIS/Include/cmsis_gcc.h **** #endif
 116:../Drivers/CMSIS/Include/cmsis_gcc.h **** 
 117:../Drivers/CMSIS/Include/cmsis_gcc.h **** 
ARM GAS  C:\Users\PC\AppData\Local\Temp\ccQwx6G1.s 			page 14


 118:../Drivers/CMSIS/Include/cmsis_gcc.h **** /* ###########################  Core Function Access  ########################### */
 119:../Drivers/CMSIS/Include/cmsis_gcc.h **** /** \ingroup  CMSIS_Core_FunctionInterface
 120:../Drivers/CMSIS/Include/cmsis_gcc.h ****     \defgroup CMSIS_Core_RegAccFunctions CMSIS Core Register Access Functions
 121:../Drivers/CMSIS/Include/cmsis_gcc.h ****   @{
 122:../Drivers/CMSIS/Include/cmsis_gcc.h ****  */
 123:../Drivers/CMSIS/Include/cmsis_gcc.h **** 
 124:../Drivers/CMSIS/Include/cmsis_gcc.h **** /**
 125:../Drivers/CMSIS/Include/cmsis_gcc.h ****   \brief   Enable IRQ Interrupts
 126:../Drivers/CMSIS/Include/cmsis_gcc.h ****   \details Enables IRQ interrupts by clearing the I-bit in the CPSR.
 127:../Drivers/CMSIS/Include/cmsis_gcc.h ****            Can only be executed in Privileged modes.
 128:../Drivers/CMSIS/Include/cmsis_gcc.h ****  */
 129:../Drivers/CMSIS/Include/cmsis_gcc.h **** __STATIC_FORCEINLINE void __enable_irq(void)
 130:../Drivers/CMSIS/Include/cmsis_gcc.h **** {
 131:../Drivers/CMSIS/Include/cmsis_gcc.h ****   __ASM volatile ("cpsie i" : : : "memory");
 132:../Drivers/CMSIS/Include/cmsis_gcc.h **** }
 133:../Drivers/CMSIS/Include/cmsis_gcc.h **** 
 134:../Drivers/CMSIS/Include/cmsis_gcc.h **** 
 135:../Drivers/CMSIS/Include/cmsis_gcc.h **** /**
 136:../Drivers/CMSIS/Include/cmsis_gcc.h ****   \brief   Disable IRQ Interrupts
 137:../Drivers/CMSIS/Include/cmsis_gcc.h ****   \details Disables IRQ interrupts by setting the I-bit in the CPSR.
 138:../Drivers/CMSIS/Include/cmsis_gcc.h ****            Can only be executed in Privileged modes.
 139:../Drivers/CMSIS/Include/cmsis_gcc.h ****  */
 140:../Drivers/CMSIS/Include/cmsis_gcc.h **** __STATIC_FORCEINLINE void __disable_irq(void)
 353              		.loc 2 140 27 view .LVU101
 354              	.LBB9:
 141:../Drivers/CMSIS/Include/cmsis_gcc.h **** {
 142:../Drivers/CMSIS/Include/cmsis_gcc.h ****   __ASM volatile ("cpsid i" : : : "memory");
 355              		.loc 2 142 3 view .LVU102
 356              		.syntax unified
 357              	@ 142 "../Drivers/CMSIS/Include/cmsis_gcc.h" 1
 358 0000 72B6     		cpsid i
 359              	@ 0 "" 2
 360              		.thumb
 361              		.syntax unified
 362              	.L15:
 363              	.LBE9:
 364              	.LBE8:
 211:Core/Src/main.c ****   while (1)
 365              		.loc 1 211 3 view .LVU103
 212:Core/Src/main.c ****   {
 213:Core/Src/main.c ****   }
 366              		.loc 1 213 3 view .LVU104
 211:Core/Src/main.c ****   while (1)
 367              		.loc 1 211 9 view .LVU105
 368 0002 FEE7     		b	.L15
 369              		.cfi_endproc
 370              	.LFE73:
 372              		.section	.text.MX_USART1_UART_Init,"ax",%progbits
 373              		.align	1
 374              		.syntax unified
 375              		.thumb
 376              		.thumb_func
 378              	MX_USART1_UART_Init:
 379              	.LFB67:
  89:Core/Src/main.c ****   huart1.Instance = USART1;
 380              		.loc 1 89 1 view -0
 381              		.cfi_startproc
ARM GAS  C:\Users\PC\AppData\Local\Temp\ccQwx6G1.s 			page 15


 382              		@ args = 0, pretend = 0, frame = 0
 383              		@ frame_needed = 0, uses_anonymous_args = 0
 384 0000 08B5     		push	{r3, lr}
 385              	.LCFI3:
 386              		.cfi_def_cfa_offset 8
 387              		.cfi_offset 3, -8
 388              		.cfi_offset 14, -4
  90:Core/Src/main.c ****   huart1.Init.BaudRate = APP_UART_BAUDRATE;
 389              		.loc 1 90 3 view .LVU107
  90:Core/Src/main.c ****   huart1.Init.BaudRate = APP_UART_BAUDRATE;
 390              		.loc 1 90 19 is_stmt 0 view .LVU108
 391 0002 0A48     		ldr	r0, .L20
 392 0004 0A4B     		ldr	r3, .L20+4
 393 0006 0360     		str	r3, [r0]
  91:Core/Src/main.c ****   huart1.Init.WordLength = UART_WORDLENGTH_8B;
 394              		.loc 1 91 3 is_stmt 1 view .LVU109
  91:Core/Src/main.c ****   huart1.Init.WordLength = UART_WORDLENGTH_8B;
 395              		.loc 1 91 24 is_stmt 0 view .LVU110
 396 0008 4FF4E133 		mov	r3, #115200
 397 000c 4360     		str	r3, [r0, #4]
  92:Core/Src/main.c ****   huart1.Init.StopBits = UART_STOPBITS_1;
 398              		.loc 1 92 3 is_stmt 1 view .LVU111
  92:Core/Src/main.c ****   huart1.Init.StopBits = UART_STOPBITS_1;
 399              		.loc 1 92 26 is_stmt 0 view .LVU112
 400 000e 0023     		movs	r3, #0
 401 0010 8360     		str	r3, [r0, #8]
  93:Core/Src/main.c ****   huart1.Init.Parity = UART_PARITY_NONE;
 402              		.loc 1 93 3 is_stmt 1 view .LVU113
  93:Core/Src/main.c ****   huart1.Init.Parity = UART_PARITY_NONE;
 403              		.loc 1 93 24 is_stmt 0 view .LVU114
 404 0012 C360     		str	r3, [r0, #12]
  94:Core/Src/main.c ****   huart1.Init.Mode = UART_MODE_TX_RX;
 405              		.loc 1 94 3 is_stmt 1 view .LVU115
  94:Core/Src/main.c ****   huart1.Init.Mode = UART_MODE_TX_RX;
 406              		.loc 1 94 22 is_stmt 0 view .LVU116
 407 0014 0361     		str	r3, [r0, #16]
  95:Core/Src/main.c ****   huart1.Init.HwFlowCtl = UART_HWCONTROL_NONE;
 408              		.loc 1 95 3 is_stmt 1 view .LVU117
  95:Core/Src/main.c ****   huart1.Init.HwFlowCtl = UART_HWCONTROL_NONE;
 409              		.loc 1 95 20 is_stmt 0 view .LVU118
 410 0016 0C22     		movs	r2, #12
 411 0018 4261     		str	r2, [r0, #20]
  96:Core/Src/main.c ****   huart1.Init.OverSampling = UART_OVERSAMPLING_16;
 412              		.loc 1 96 3 is_stmt 1 view .LVU119
  96:Core/Src/main.c ****   huart1.Init.OverSampling = UART_OVERSAMPLING_16;
 413              		.loc 1 96 25 is_stmt 0 view .LVU120
 414 001a 8361     		str	r3, [r0, #24]
  97:Core/Src/main.c ****   if (HAL_UART_Init(&huart1) != HAL_OK)
 415              		.loc 1 97 3 is_stmt 1 view .LVU121
  97:Core/Src/main.c ****   if (HAL_UART_Init(&huart1) != HAL_OK)
 416              		.loc 1 97 28 is_stmt 0 view .LVU122
 417 001c C361     		str	r3, [r0, #28]
  98:Core/Src/main.c ****   {
 418              		.loc 1 98 3 is_stmt 1 view .LVU123
  98:Core/Src/main.c ****   {
 419              		.loc 1 98 7 is_stmt 0 view .LVU124
 420 001e FFF7FEFF 		bl	HAL_UART_Init
ARM GAS  C:\Users\PC\AppData\Local\Temp\ccQwx6G1.s 			page 16


 421              	.LVL9:
  98:Core/Src/main.c ****   {
 422              		.loc 1 98 6 discriminator 1 view .LVU125
 423 0022 00B9     		cbnz	r0, .L19
 102:Core/Src/main.c **** 
 424              		.loc 1 102 1 view .LVU126
 425 0024 08BD     		pop	{r3, pc}
 426              	.L19:
 100:Core/Src/main.c ****   }
 427              		.loc 1 100 5 is_stmt 1 view .LVU127
 428 0026 FFF7FEFF 		bl	Error_Handler
 429              	.LVL10:
 430              	.L21:
 431 002a 00BF     		.align	2
 432              	.L20:
 433 002c 00000000 		.word	huart1
 434 0030 00380140 		.word	1073821696
 435              		.cfi_endproc
 436              	.LFE67:
 438              		.section	.text.MX_USART2_UART_Init,"ax",%progbits
 439              		.align	1
 440              		.syntax unified
 441              		.thumb
 442              		.thumb_func
 444              	MX_USART2_UART_Init:
 445              	.LFB68:
 105:Core/Src/main.c ****   huart2.Instance = USART2;
 446              		.loc 1 105 1 view -0
 447              		.cfi_startproc
 448              		@ args = 0, pretend = 0, frame = 0
 449              		@ frame_needed = 0, uses_anonymous_args = 0
 450 0000 08B5     		push	{r3, lr}
 451              	.LCFI4:
 452              		.cfi_def_cfa_offset 8
 453              		.cfi_offset 3, -8
 454              		.cfi_offset 14, -4
 106:Core/Src/main.c ****   huart2.Init.BaudRate = APP_UART_BAUDRATE;
 455              		.loc 1 106 3 view .LVU129
 106:Core/Src/main.c ****   huart2.Init.BaudRate = APP_UART_BAUDRATE;
 456              		.loc 1 106 19 is_stmt 0 view .LVU130
 457 0002 0A48     		ldr	r0, .L26
 458 0004 0A4B     		ldr	r3, .L26+4
 459 0006 0360     		str	r3, [r0]
 107:Core/Src/main.c ****   huart2.Init.WordLength = UART_WORDLENGTH_8B;
 460              		.loc 1 107 3 is_stmt 1 view .LVU131
 107:Core/Src/main.c ****   huart2.Init.WordLength = UART_WORDLENGTH_8B;
 461              		.loc 1 107 24 is_stmt 0 view .LVU132
 462 0008 4FF4E133 		mov	r3, #115200
 463 000c 4360     		str	r3, [r0, #4]
 108:Core/Src/main.c ****   huart2.Init.StopBits = UART_STOPBITS_1;
 464              		.loc 1 108 3 is_stmt 1 view .LVU133
 108:Core/Src/main.c ****   huart2.Init.StopBits = UART_STOPBITS_1;
 465              		.loc 1 108 26 is_stmt 0 view .LVU134
 466 000e 0023     		movs	r3, #0
 467 0010 8360     		str	r3, [r0, #8]
 109:Core/Src/main.c ****   huart2.Init.Parity = UART_PARITY_NONE;
 468              		.loc 1 109 3 is_stmt 1 view .LVU135
ARM GAS  C:\Users\PC\AppData\Local\Temp\ccQwx6G1.s 			page 17


 109:Core/Src/main.c ****   huart2.Init.Parity = UART_PARITY_NONE;
 469              		.loc 1 109 24 is_stmt 0 view .LVU136
 470 0012 C360     		str	r3, [r0, #12]
 110:Core/Src/main.c ****   huart2.Init.Mode = UART_MODE_TX_RX;
 471              		.loc 1 110 3 is_stmt 1 view .LVU137
 110:Core/Src/main.c ****   huart2.Init.Mode = UART_MODE_TX_RX;
 472              		.loc 1 110 22 is_stmt 0 view .LVU138
 473 0014 0361     		str	r3, [r0, #16]
 111:Core/Src/main.c ****   huart2.Init.HwFlowCtl = UART_HWCONTROL_NONE;
 474              		.loc 1 111 3 is_stmt 1 view .LVU139
 111:Core/Src/main.c ****   huart2.Init.HwFlowCtl = UART_HWCONTROL_NONE;
 475              		.loc 1 111 20 is_stmt 0 view .LVU140
 476 0016 0C22     		movs	r2, #12
 477 0018 4261     		str	r2, [r0, #20]
 112:Core/Src/main.c ****   huart2.Init.OverSampling = UART_OVERSAMPLING_16;
 478              		.loc 1 112 3 is_stmt 1 view .LVU141
 112:Core/Src/main.c ****   huart2.Init.OverSampling = UART_OVERSAMPLING_16;
 479              		.loc 1 112 25 is_stmt 0 view .LVU142
 480 001a 8361     		str	r3, [r0, #24]
 113:Core/Src/main.c ****   if (HAL_UART_Init(&huart2) != HAL_OK)
 481              		.loc 1 113 3 is_stmt 1 view .LVU143
 113:Core/Src/main.c ****   if (HAL_UART_Init(&huart2) != HAL_OK)
 482              		.loc 1 113 28 is_stmt 0 view .LVU144
 483 001c C361     		str	r3, [r0, #28]
 114:Core/Src/main.c ****   {
 484              		.loc 1 114 3 is_stmt 1 view .LVU145
 114:Core/Src/main.c ****   {
 485              		.loc 1 114 7 is_stmt 0 view .LVU146
 486 001e FFF7FEFF 		bl	HAL_UART_Init
 487              	.LVL11:
 114:Core/Src/main.c ****   {
 488              		.loc 1 114 6 discriminator 1 view .LVU147
 489 0022 00B9     		cbnz	r0, .L25
 118:Core/Src/main.c **** 
 490              		.loc 1 118 1 view .LVU148
 491 0024 08BD     		pop	{r3, pc}
 492              	.L25:
 116:Core/Src/main.c ****   }
 493              		.loc 1 116 5 is_stmt 1 view .LVU149
 494 0026 FFF7FEFF 		bl	Error_Handler
 495              	.LVL12:
 496              	.L27:
 497 002a 00BF     		.align	2
 498              	.L26:
 499 002c 00000000 		.word	huart2
 500 0030 00440040 		.word	1073759232
 501              		.cfi_endproc
 502              	.LFE68:
 504              		.section	.text.MX_USART3_UART_Init,"ax",%progbits
 505              		.align	1
 506              		.syntax unified
 507              		.thumb
 508              		.thumb_func
 510              	MX_USART3_UART_Init:
 511              	.LFB69:
 121:Core/Src/main.c ****   huart3.Instance = USART3;
 512              		.loc 1 121 1 view -0
ARM GAS  C:\Users\PC\AppData\Local\Temp\ccQwx6G1.s 			page 18


 513              		.cfi_startproc
 514              		@ args = 0, pretend = 0, frame = 0
 515              		@ frame_needed = 0, uses_anonymous_args = 0
 516 0000 08B5     		push	{r3, lr}
 517              	.LCFI5:
 518              		.cfi_def_cfa_offset 8
 519              		.cfi_offset 3, -8
 520              		.cfi_offset 14, -4
 122:Core/Src/main.c ****   huart3.Init.BaudRate = APP_UART_BAUDRATE;
 521              		.loc 1 122 3 view .LVU151
 122:Core/Src/main.c ****   huart3.Init.BaudRate = APP_UART_BAUDRATE;
 522              		.loc 1 122 19 is_stmt 0 view .LVU152
 523 0002 0A48     		ldr	r0, .L32
 524 0004 0A4B     		ldr	r3, .L32+4
 525 0006 0360     		str	r3, [r0]
 123:Core/Src/main.c ****   huart3.Init.WordLength = UART_WORDLENGTH_8B;
 526              		.loc 1 123 3 is_stmt 1 view .LVU153
 123:Core/Src/main.c ****   huart3.Init.WordLength = UART_WORDLENGTH_8B;
 527              		.loc 1 123 24 is_stmt 0 view .LVU154
 528 0008 4FF4E133 		mov	r3, #115200
 529 000c 4360     		str	r3, [r0, #4]
 124:Core/Src/main.c ****   huart3.Init.StopBits = UART_STOPBITS_1;
 530              		.loc 1 124 3 is_stmt 1 view .LVU155
 124:Core/Src/main.c ****   huart3.Init.StopBits = UART_STOPBITS_1;
 531              		.loc 1 124 26 is_stmt 0 view .LVU156
 532 000e 0023     		movs	r3, #0
 533 0010 8360     		str	r3, [r0, #8]
 125:Core/Src/main.c ****   huart3.Init.Parity = UART_PARITY_NONE;
 534              		.loc 1 125 3 is_stmt 1 view .LVU157
 125:Core/Src/main.c ****   huart3.Init.Parity = UART_PARITY_NONE;
 535              		.loc 1 125 24 is_stmt 0 view .LVU158
 536 0012 C360     		str	r3, [r0, #12]
 126:Core/Src/main.c ****   huart3.Init.Mode = UART_MODE_TX_RX;
 537              		.loc 1 126 3 is_stmt 1 view .LVU159
 126:Core/Src/main.c ****   huart3.Init.Mode = UART_MODE_TX_RX;
 538              		.loc 1 126 22 is_stmt 0 view .LVU160
 539 0014 0361     		str	r3, [r0, #16]
 127:Core/Src/main.c ****   huart3.Init.HwFlowCtl = UART_HWCONTROL_NONE;
 540              		.loc 1 127 3 is_stmt 1 view .LVU161
 127:Core/Src/main.c ****   huart3.Init.HwFlowCtl = UART_HWCONTROL_NONE;
 541              		.loc 1 127 20 is_stmt 0 view .LVU162
 542 0016 0C22     		movs	r2, #12
 543 0018 4261     		str	r2, [r0, #20]
 128:Core/Src/main.c ****   huart3.Init.OverSampling = UART_OVERSAMPLING_16;
 544              		.loc 1 128 3 is_stmt 1 view .LVU163
 128:Core/Src/main.c ****   huart3.Init.OverSampling = UART_OVERSAMPLING_16;
 545              		.loc 1 128 25 is_stmt 0 view .LVU164
 546 001a 8361     		str	r3, [r0, #24]
 129:Core/Src/main.c ****   if (HAL_UART_Init(&huart3) != HAL_OK)
 547              		.loc 1 129 3 is_stmt 1 view .LVU165
 129:Core/Src/main.c ****   if (HAL_UART_Init(&huart3) != HAL_OK)
 548              		.loc 1 129 28 is_stmt 0 view .LVU166
 549 001c C361     		str	r3, [r0, #28]
 130:Core/Src/main.c ****   {
 550              		.loc 1 130 3 is_stmt 1 view .LVU167
 130:Core/Src/main.c ****   {
 551              		.loc 1 130 7 is_stmt 0 view .LVU168
ARM GAS  C:\Users\PC\AppData\Local\Temp\ccQwx6G1.s 			page 19


 552 001e FFF7FEFF 		bl	HAL_UART_Init
 553              	.LVL13:
 130:Core/Src/main.c ****   {
 554              		.loc 1 130 6 discriminator 1 view .LVU169
 555 0022 00B9     		cbnz	r0, .L31
 134:Core/Src/main.c **** 
 556              		.loc 1 134 1 view .LVU170
 557 0024 08BD     		pop	{r3, pc}
 558              	.L31:
 132:Core/Src/main.c ****   }
 559              		.loc 1 132 5 is_stmt 1 view .LVU171
 560 0026 FFF7FEFF 		bl	Error_Handler
 561              	.LVL14:
 562              	.L33:
 563 002a 00BF     		.align	2
 564              	.L32:
 565 002c 00000000 		.word	huart3
 566 0030 00480040 		.word	1073760256
 567              		.cfi_endproc
 568              	.LFE69:
 570              		.section	.text.SystemClock_Config,"ax",%progbits
 571              		.align	1
 572              		.global	SystemClock_Config
 573              		.syntax unified
 574              		.thumb
 575              		.thumb_func
 577              	SystemClock_Config:
 578              	.LFB66:
  81:Core/Src/main.c ****   if (AppFrameworkClock_ConfigHsePll6AdcDiv6() != HAL_OK)
 579              		.loc 1 81 1 view -0
 580              		.cfi_startproc
 581              		@ args = 0, pretend = 0, frame = 0
 582              		@ frame_needed = 0, uses_anonymous_args = 0
 583 0000 08B5     		push	{r3, lr}
 584              	.LCFI6:
 585              		.cfi_def_cfa_offset 8
 586              		.cfi_offset 3, -8
 587              		.cfi_offset 14, -4
  82:Core/Src/main.c ****   {
 588              		.loc 1 82 3 view .LVU173
  82:Core/Src/main.c ****   {
 589              		.loc 1 82 7 is_stmt 0 view .LVU174
 590 0002 FFF7FEFF 		bl	AppFrameworkClock_ConfigHsePll6AdcDiv6
 591              	.LVL15:
  82:Core/Src/main.c ****   {
 592              		.loc 1 82 6 discriminator 1 view .LVU175
 593 0006 00B9     		cbnz	r0, .L37
  86:Core/Src/main.c **** 
 594              		.loc 1 86 1 view .LVU176
 595 0008 08BD     		pop	{r3, pc}
 596              	.L37:
  84:Core/Src/main.c ****   }
 597              		.loc 1 84 5 is_stmt 1 view .LVU177
 598 000a FFF7FEFF 		bl	Error_Handler
 599              	.LVL16:
 600              		.cfi_endproc
 601              	.LFE66:
ARM GAS  C:\Users\PC\AppData\Local\Temp\ccQwx6G1.s 			page 20


 603              		.section	.text.main,"ax",%progbits
 604              		.align	1
 605              		.global	main
 606              		.syntax unified
 607              		.thumb
 608              		.thumb_func
 610              	main:
 611              	.LFB65:
  24:Core/Src/main.c **** #if APP_TEST_HANG_AFTER_BOOT_MS > 0U
 612              		.loc 1 24 1 view -0
 613              		.cfi_startproc
 614              		@ Volatile: function does not return.
 615              		@ args = 0, pretend = 0, frame = 56
 616              		@ frame_needed = 0, uses_anonymous_args = 0
 617 0000 00B5     		push	{lr}
 618              	.LCFI7:
 619              		.cfi_def_cfa_offset 4
 620              		.cfi_offset 14, -4
 621 0002 8FB0     		sub	sp, sp, #60
 622              	.LCFI8:
 623              		.cfi_def_cfa_offset 64
  28:Core/Src/main.c **** 
 624              		.loc 1 28 3 view .LVU179
  30:Core/Src/main.c ****   AppWatchdog_Refresh();
 625              		.loc 1 30 3 view .LVU180
 626 0004 FFF7FEFF 		bl	HAL_Init
 627              	.LVL17:
  31:Core/Src/main.c ****   SystemClock_Config();
 628              		.loc 1 31 3 view .LVU181
 629 0008 FFF7FEFF 		bl	AppWatchdog_Refresh
 630              	.LVL18:
  32:Core/Src/main.c ****   AppWatchdog_Refresh();
 631              		.loc 1 32 3 view .LVU182
 632 000c FFF7FEFF 		bl	SystemClock_Config
 633              	.LVL19:
  33:Core/Src/main.c ****   MX_GPIO_Init();
 634              		.loc 1 33 3 view .LVU183
 635 0010 FFF7FEFF 		bl	AppWatchdog_Refresh
 636              	.LVL20:
  34:Core/Src/main.c ****   AppWatchdog_Refresh();
 637              		.loc 1 34 3 view .LVU184
 638 0014 FFF7FEFF 		bl	MX_GPIO_Init
 639              	.LVL21:
  35:Core/Src/main.c ****   MX_USART1_UART_Init();
 640              		.loc 1 35 3 view .LVU185
 641 0018 FFF7FEFF 		bl	AppWatchdog_Refresh
 642              	.LVL22:
  36:Core/Src/main.c ****   AppWatchdog_Refresh();
 643              		.loc 1 36 3 view .LVU186
 644 001c FFF7FEFF 		bl	MX_USART1_UART_Init
 645              	.LVL23:
  37:Core/Src/main.c ****   MX_USART2_UART_Init();
 646              		.loc 1 37 3 view .LVU187
 647 0020 FFF7FEFF 		bl	AppWatchdog_Refresh
 648              	.LVL24:
  38:Core/Src/main.c ****   AppWatchdog_Refresh();
 649              		.loc 1 38 3 view .LVU188
ARM GAS  C:\Users\PC\AppData\Local\Temp\ccQwx6G1.s 			page 21


 650 0024 FFF7FEFF 		bl	MX_USART2_UART_Init
 651              	.LVL25:
  39:Core/Src/main.c ****   MX_USART3_UART_Init();
 652              		.loc 1 39 3 view .LVU189
 653 0028 FFF7FEFF 		bl	AppWatchdog_Refresh
 654              	.LVL26:
  40:Core/Src/main.c ****   AppWatchdog_Refresh();
 655              		.loc 1 40 3 view .LVU190
 656 002c FFF7FEFF 		bl	MX_USART3_UART_Init
 657              	.LVL27:
  41:Core/Src/main.c **** 
 658              		.loc 1 41 3 view .LVU191
 659 0030 FFF7FEFF 		bl	AppWatchdog_Refresh
 660              	.LVL28:
  43:Core/Src/main.c ****   app_hw.host_uart1 = &huart2;
 661              		.loc 1 43 3 view .LVU192
  43:Core/Src/main.c ****   app_hw.host_uart1 = &huart2;
 662              		.loc 1 43 21 is_stmt 0 view .LVU193
 663 0034 184B     		ldr	r3, .L41
 664 0036 0193     		str	r3, [sp, #4]
  44:Core/Src/main.c ****   app_hw.host_uart2 = &huart3;
 665              		.loc 1 44 3 is_stmt 1 view .LVU194
  44:Core/Src/main.c ****   app_hw.host_uart2 = &huart3;
 666              		.loc 1 44 21 is_stmt 0 view .LVU195
 667 0038 184B     		ldr	r3, .L41+4
 668 003a 0293     		str	r3, [sp, #8]
  45:Core/Src/main.c ****   app_hw.sys_led_port = LED_SYS_GPIO_Port;
 669              		.loc 1 45 3 is_stmt 1 view .LVU196
  45:Core/Src/main.c ****   app_hw.sys_led_port = LED_SYS_GPIO_Port;
 670              		.loc 1 45 21 is_stmt 0 view .LVU197
 671 003c 184B     		ldr	r3, .L41+8
 672 003e 0393     		str	r3, [sp, #12]
  46:Core/Src/main.c ****   app_hw.sys_led_pin = LED_SYS_Pin;
 673              		.loc 1 46 3 is_stmt 1 view .LVU198
  46:Core/Src/main.c ****   app_hw.sys_led_pin = LED_SYS_Pin;
 674              		.loc 1 46 23 is_stmt 0 view .LVU199
 675 0040 184B     		ldr	r3, .L41+12
 676 0042 0493     		str	r3, [sp, #16]
  47:Core/Src/main.c ****   app_hw.radio_m0_port = RADIO_M0_GPIO_Port;
 677              		.loc 1 47 3 is_stmt 1 view .LVU200
  47:Core/Src/main.c ****   app_hw.radio_m0_port = RADIO_M0_GPIO_Port;
 678              		.loc 1 47 22 is_stmt 0 view .LVU201
 679 0044 4FF40053 		mov	r3, #8192
 680 0048 ADF81430 		strh	r3, [sp, #20]	@ movhi
  48:Core/Src/main.c ****   app_hw.radio_m0_pin = RADIO_M0_Pin;
 681              		.loc 1 48 3 is_stmt 1 view .LVU202
  48:Core/Src/main.c ****   app_hw.radio_m0_pin = RADIO_M0_Pin;
 682              		.loc 1 48 24 is_stmt 0 view .LVU203
 683 004c 164B     		ldr	r3, .L41+16
 684 004e 0693     		str	r3, [sp, #24]
  49:Core/Src/main.c ****   app_hw.radio_m1_port = RADIO_M1_GPIO_Port;
 685              		.loc 1 49 3 is_stmt 1 view .LVU204
  49:Core/Src/main.c ****   app_hw.radio_m1_port = RADIO_M1_GPIO_Port;
 686              		.loc 1 49 23 is_stmt 0 view .LVU205
 687 0050 4FF48042 		mov	r2, #16384
 688 0054 ADF81C20 		strh	r2, [sp, #28]	@ movhi
  50:Core/Src/main.c ****   app_hw.radio_m1_pin = RADIO_M1_Pin;
ARM GAS  C:\Users\PC\AppData\Local\Temp\ccQwx6G1.s 			page 22


 689              		.loc 1 50 3 is_stmt 1 view .LVU206
  50:Core/Src/main.c ****   app_hw.radio_m1_pin = RADIO_M1_Pin;
 690              		.loc 1 50 24 is_stmt 0 view .LVU207
 691 0058 0893     		str	r3, [sp, #32]
  51:Core/Src/main.c ****   app_hw.radio_m2_port = RADIO_M2_GPIO_Port;
 692              		.loc 1 51 3 is_stmt 1 view .LVU208
  51:Core/Src/main.c ****   app_hw.radio_m2_port = RADIO_M2_GPIO_Port;
 693              		.loc 1 51 23 is_stmt 0 view .LVU209
 694 005a 4FF40043 		mov	r3, #32768
 695 005e ADF82430 		strh	r3, [sp, #36]	@ movhi
  52:Core/Src/main.c ****   app_hw.radio_m2_pin = RADIO_M2_Pin;
 696              		.loc 1 52 3 is_stmt 1 view .LVU210
  52:Core/Src/main.c ****   app_hw.radio_m2_pin = RADIO_M2_Pin;
 697              		.loc 1 52 24 is_stmt 0 view .LVU211
 698 0062 03F18043 		add	r3, r3, #1073741824
 699 0066 03F50843 		add	r3, r3, #34816
 700 006a 0A93     		str	r3, [sp, #40]
  53:Core/Src/main.c ****   app_hw.radio_aux_port = RADIO_AUX_GPIO_Port;
 701              		.loc 1 53 3 is_stmt 1 view .LVU212
  53:Core/Src/main.c ****   app_hw.radio_aux_port = RADIO_AUX_GPIO_Port;
 702              		.loc 1 53 23 is_stmt 0 view .LVU213
 703 006c 4FF48072 		mov	r2, #256
 704 0070 ADF82C20 		strh	r2, [sp, #44]	@ movhi
  54:Core/Src/main.c ****   app_hw.radio_aux_pin = RADIO_AUX_Pin;
 705              		.loc 1 54 3 is_stmt 1 view .LVU214
  54:Core/Src/main.c ****   app_hw.radio_aux_pin = RADIO_AUX_Pin;
 706              		.loc 1 54 25 is_stmt 0 view .LVU215
 707 0074 0C93     		str	r3, [sp, #48]
  55:Core/Src/main.c **** 
 708              		.loc 1 55 3 is_stmt 1 view .LVU216
  55:Core/Src/main.c **** 
 709              		.loc 1 55 24 is_stmt 0 view .LVU217
 710 0076 4FF40063 		mov	r3, #2048
 711 007a ADF83430 		strh	r3, [sp, #52]	@ movhi
  57:Core/Src/main.c ****   AppWatchdog_Init();
 712              		.loc 1 57 3 is_stmt 1 view .LVU218
 713 007e 01A8     		add	r0, sp, #4
 714 0080 FFF7FEFF 		bl	App_Init
 715              	.LVL29:
  58:Core/Src/main.c ****   AppWatchdog_Refresh();
 716              		.loc 1 58 3 view .LVU219
 717 0084 FFF7FEFF 		bl	AppWatchdog_Init
 718              	.LVL30:
  59:Core/Src/main.c **** 
 719              		.loc 1 59 3 view .LVU220
 720 0088 FFF7FEFF 		bl	AppWatchdog_Refresh
 721              	.LVL31:
 722              	.L39:
  65:Core/Src/main.c ****   {
 723              		.loc 1 65 3 view .LVU221
  75:Core/Src/main.c ****     AppWatchdog_Refresh();
 724              		.loc 1 75 5 view .LVU222
 725 008c FFF7FEFF 		bl	App_Run
 726              	.LVL32:
  76:Core/Src/main.c ****   }
 727              		.loc 1 76 5 discriminator 1 view .LVU223
 728 0090 FFF7FEFF 		bl	AppWatchdog_Refresh
ARM GAS  C:\Users\PC\AppData\Local\Temp\ccQwx6G1.s 			page 23


 729              	.LVL33:
  65:Core/Src/main.c ****   {
 730              		.loc 1 65 9 view .LVU224
 731 0094 FAE7     		b	.L39
 732              	.L42:
 733 0096 00BF     		.align	2
 734              	.L41:
 735 0098 00000000 		.word	huart1
 736 009c 00000000 		.word	huart2
 737 00a0 00000000 		.word	huart3
 738 00a4 00100140 		.word	1073811456
 739 00a8 000C0140 		.word	1073810432
 740              		.cfi_endproc
 741              	.LFE65:
 743              		.global	huart3
 744              		.section	.bss.huart3,"aw",%nobits
 745              		.align	2
 748              	huart3:
 749 0000 00000000 		.space	68
 749      00000000 
 749      00000000 
 749      00000000 
 749      00000000 
 750              		.global	huart2
 751              		.section	.bss.huart2,"aw",%nobits
 752              		.align	2
 755              	huart2:
 756 0000 00000000 		.space	68
 756      00000000 
 756      00000000 
 756      00000000 
 756      00000000 
 757              		.global	huart1
 758              		.section	.bss.huart1,"aw",%nobits
 759              		.align	2
 762              	huart1:
 763 0000 00000000 		.space	68
 763      00000000 
 763      00000000 
 763      00000000 
 763      00000000 
 764              		.text
 765              	.Letext0:
 766              		.file 3 "C:/Program Files (x86)/Arm GNU Toolchain arm-none-eabi/14.2 rel1/arm-none-eabi/include/ma
 767              		.file 4 "C:/Program Files (x86)/Arm GNU Toolchain arm-none-eabi/14.2 rel1/arm-none-eabi/include/sy
 768              		.file 5 "../Drivers/CMSIS/Device/ST/STM32F1xx/Include/stm32f103xb.h"
 769              		.file 6 "../Drivers/STM32F1xx_HAL_Driver/Inc/stm32f1xx_hal_def.h"
 770              		.file 7 "../Drivers/STM32F1xx_HAL_Driver/Inc/stm32f1xx_hal_gpio.h"
 771              		.file 8 "../Drivers/STM32F1xx_HAL_Driver/Inc/stm32f1xx_hal_dma.h"
 772              		.file 9 "../Drivers/STM32F1xx_HAL_Driver/Inc/stm32f1xx_hal_uart.h"
 773              		.file 10 "App/Inc/app.h"
 774              		.file 11 "Framework/Inc/app_framework_clock.h"
 775              		.file 12 "../Drivers/STM32F1xx_HAL_Driver/Inc/stm32f1xx_hal.h"
ARM GAS  C:\Users\PC\AppData\Local\Temp\ccQwx6G1.s 			page 24

